(iTweetDB
TweetDB
p0
(dp1
S'tweets'
p2
(lp3
(iTweetDB
Tweet
p4
(dp5
S'username'
p6
S'aRthur'
p7
sS'user_id'
p8
S'505372294'
p9
sS'tags'
p10
(lp11
VLALALANDs
p12
aVGoldenGlobes
p13
asS'text'
p14
S'RT @LaLaLand: Heres to the ones who dream. Congratulations to #LALALANDs Emma Stone for her #GoldenGlobes Best Actress win!  https://t.c'
p15
sS'timestamp'
p16
cdatetime
datetime
p17
(S'\x07\xe1\x01\t\x17;;\x00\x00\x00'
p18
tp19
Rp20
sS'mentions'
p21
(lp22
S'LaLaLand'
p23
asba(iTweetDB
Tweet
p24
(dp25
g6
S'Kamehamedoukenn'
p26
sg8
S'2982913541'
p27
sg10
(lp28
sg14
S'RT @VoteTrumpPics: Sylvester Stallone to @realDonaldTrump"To President Trump, A Real Champ! Greatest Knockout in History!" - @TheSlyStall'
p29
sg16
g17
(S'\x07\xe1\x01\t\x17;:\x00\x00\x00'
p30
tp31
Rp32
sg21
(lp33
S'VoteTrumpPics'
p34
aS'realDonaldTrump'
p35
aS'TheSlyStall'
p36
asba(iTweetDB
Tweet
p37
(dp38
g6
S'TC Ronaldinho'
p39
sg8
S'938301480'
p40
sg10
(lp41
VGoldenGlobeshttp
p42
asg14
S'RT @MyDaughtersArmy: Meryl Streep beautifully calls outs Donald Trump for mocking disabled reporter during her speech at #GoldenGlobeshttp'
p43
sg16
g17
(S'\x07\xe1\x01\t\x17;:\x00\x00\x00'
p44
tp45
Rp46
sg21
(lp47
S'MyDaughtersArmy'
p48
asba(iTweetDB
Tweet
p49
(dp50
g6
S'Casey'
p51
sg8
S'794707137129840640'
p52
sg10
(lp53
VGoldenGlobes
p54
asg14
S'RT @larryelder: "The True Story: Donald Trump Did NOT Mock A Reporter\'s Disability"https://t.co/VKJG381ySH#MerylStreep #GoldenGlobes'
p55
sg16
g17
(S'\x07\xe1\x01\t\x17;9\x00\x00\x00'
p56
tp57
Rp58
sg21
(lp59
S'larryelder'
p60
asba(iTweetDB
Tweet
p61
(dp62
g6
S'Southern Belle'
p63
sg8
S'627049569'
p64
sg10
(lp65
VGoldenGlobes
p66
asg14
S"I've always liked Meryl Streep well enough but this is pretty accurate #GoldenGlobes https://t.co/l9i7TfYi3j"
p67
sg16
g17
(S'\x07\xe1\x01\t\x17;9\x00\x00\x00'
p68
tp69
Rp70
sg21
(lp71
sba(iTweetDB
Tweet
p72
(dp73
g6
S'ExpatSoutherner'
p74
sg8
S'250906472'
p75
sg10
(lp76
VMerylStreep
p77
aVGoldenGlobes
p78
asg14
S'RT @Amy_Siskind: Bears repeating:Trump did this while his supporters cheered. You will all be judged. #MerylStreep #GoldenGlobes https:/'
p79
sg16
g17
(S'\x07\xe1\x01\t\x17;9\x00\x00\x00'
p80
tp81
Rp82
sg21
(lp83
S'Amy_Siskind'
p84
asba(iTweetDB
Tweet
p85
(dp86
g6
S'Andrew'
p87
sg8
S'779764336910753794'
p88
sg10
(lp89
sg14
S'@mymac24 @goldenglobes Yeah, Trump'
p90
sg16
g17
(S'\x07\xe1\x01\t\x17;8\x00\x00\x00'
p91
tp92
Rp93
sg21
(lp94
S'mymac24'
p95
aS'goldenglobes'
p96
asba(iTweetDB
Tweet
p97
(dp98
g6
S'Dawne Thompson'
p99
sg8
S'772555236896485376'
p100
sg10
(lp101
VGoldenGlobes
p102
asg14
S"RT @netflix: I think you'll find it's pronounced Yes, Queen. #GoldenGlobes @TheCrownNetflix https://t.co/At2Xw7fMtK"
p103
sg16
g17
(S'\x07\xe1\x01\t\x17;8\x00\x00\x00'
p104
tp105
Rp106
sg21
(lp107
Vnetflix
p108
aVTheCrownNetflix
p109
asba(iTweetDB
Tweet
p110
(dp111
g6
S'Christos Emmanuel'
p112
sg8
S'800241122689720320'
p113
sg10
(lp114
VMerylStreep
p115
aVGoldenGlobes
p116
asg14
S"RT @DBloom451: Dana White hits back at #MerylStreep's #GoldenGlobes IDIOTIC RANT in Trump-fashion SJWs are FREAKING! Added old lady pic f"
p117
sg16
g17
(S'\x07\xe1\x01\t\x17;8\x00\x00\x00'
p118
tp119
Rp120
sg21
(lp121
S'DBloom451'
p122
asba(iTweetDB
Tweet
p123
(dp124
g6
S'Jazz'
p125
sg8
S'231312029'
p126
sg10
(lp127
Vblackish
p128
aVGoldenGlobes
p129
asg14
S'RT @anthonyanderson: Congrats to my friend and best TV wife ever! @TraceeEllisRoss #blackish #GoldenGlobes https://t.co/ZVfxZ0vLqG'
p130
sg16
g17
(S'\x07\xe1\x01\t\x17;7\x00\x00\x00'
p131
tp132
Rp133
sg21
(lp134
Vanthonyanderson
p135
aVTraceeEllisRoss
p136
asba(iTweetDB
Tweet
p137
(dp138
g6
S'Michael Scofield'
p139
sg8
S'550305414'
p140
sg10
(lp141
VLaLaLand
p142
aVGoldenGlobes
p143
asg14
S'RT @EW: Watch Justin Timberlake, Tina Fey and more spoof #LaLaLand during the #GoldenGlobes cold open. https://t.co/VC8mynFzLt'
p144
sg16
g17
(S'\x07\xe1\x01\t\x17;6\x00\x00\x00'
p145
tp146
Rp147
sg21
(lp148
VEW
p149
asba(iTweetDB
Tweet
p150
(dp151
g6
S'Sophia'
p152
sg8
S'3156943212'
p153
sg10
(lp154
VGoldenGlobes
p155
asg14
S"RT @Variety: .@ViolaDavis was just asked about Donald Trump's presidency backstage. Watch her response #GoldenGlobes https://t.co/Yrj9Rv8So0"
p156
sg16
g17
(S'\x07\xe1\x01\t\x17;6\x00\x00\x00'
p157
tp158
Rp159
sg21
(lp160
VVariety
p161
aVViolaDavis
p162
asba(iTweetDB
Tweet
p163
(dp164
g6
S''
p165
sg8
S'26916650'
p166
sg10
(lp167
VGoldenGlobes
p168
asg14
S'RT @makhondlovu: 34 years since a black woman won best television actress comedy or musical series at the #GoldenGlobes.  Took too long. Co'
p169
sg16
g17
(S'\x07\xe1\x01\t\x17;6\x00\x00\x00'
p170
tp171
Rp172
sg21
(lp173
S'makhondlovu'
p174
asba(iTweetDB
Tweet
p175
(dp176
g6
S'Laura Martnez'
p177
sg8
S'2608765873'
p178
sg10
(lp179
VGoldenGlobes
p180
asg14
S'RT @WomenintheWorld: Meryl Streep takes on @realDonaldTrump in #GoldenGlobes acceptance speech: https://t.co/CZwP7yOp1b https://t.co/SRewnl'
p181
sg16
g17
(S'\x07\xe1\x01\t\x17;6\x00\x00\x00'
p182
tp183
Rp184
sg21
(lp185
VWomenintheWorld
p186
aVrealDonaldTrump
p187
asba(iTweetDB
Tweet
p188
(dp189
g6
S'FRIDA CA$HFLOW'
p190
sg8
S'600422715'
p191
sg10
(lp192
VGoldenGlobes
p193
asg14
S'RT @jennyyangtv: Congratulations to Emma Stone! Hope for Asian Americans everywhere! #GoldenGlobes'
p194
sg16
g17
(S'\x07\xe1\x01\t\x17;5\x00\x00\x00'
p195
tp196
Rp197
sg21
(lp198
S'jennyyangtv'
p199
asba(iTweetDB
Tweet
p200
(dp201
g6
S'Linda Kronenberger'
p202
sg8
S'2802160350'
p203
sg10
(lp204
VMerylStreep
p205
asg14
S'RT @Autobot_Prof: #MerylStreep is getting more hate for criticizing Donald Trump, than he did for mocking a man with a disability. What a w'
p206
sg16
g17
(S'\x07\xe1\x01\t\x17;4\x00\x00\x00'
p207
tp208
Rp209
sg21
(lp210
S'Autobot_Prof'
p211
asba(iTweetDB
Tweet
p212
(dp213
g6
S'I Love Lucy Fans'
p214
sg8
S'762068174778925056'
p215
sg10
(lp216
VGoldenGlobes
p217
asg14
S'RT @LucyTributePage: Perhaps our beloved Lucy said it best... #GoldenGlobes https://t.co/nwU1UyCdoh'
p218
sg16
g17
(S'\x07\xe1\x01\t\x17;4\x00\x00\x00'
p219
tp220
Rp221
sg21
(lp222
VLucyTributePage
p223
asba(iTweetDB
Tweet
p224
(dp225
g6
S'Esmeralda'
p226
sg8
S'74575480'
p227
sg10
(lp228
sg14
S'RT @katwilderness: so @SofiaVergara looks absolutely STUNNING at the @goldenglobes  (p.s. I NEEEED that dress girl!) https://t.co/5XbWTxU'
p229
sg16
g17
(S'\x07\xe1\x01\t\x17;4\x00\x00\x00'
p230
tp231
Rp232
sg21
(lp233
Vkatwilderness
p234
aVSofiaVergara
p235
aVgoldenglobes
p236
asba(iTweetDB
Tweet
p237
(dp238
g6
S'Sophia'
p239
sg8
S'3156943212'
p240
sg10
(lp241
sg14
S'RT @goldenglobes: Congratulations to Tom Hiddleston (@twhiddleston) - Best Actor in a Television Movie or Miniseries - The Night Manager -'
p242
sg16
g17
(S'\x07\xe1\x01\t\x17;4\x00\x00\x00'
p243
tp244
Rp245
sg21
(lp246
S'goldenglobes'
p247
aS'twhiddleston'
p248
asba(iTweetDB
Tweet
p249
(dp250
g6
S'Gina McConnachie'
p251
sg8
S'859014553'
p252
sg10
(lp253
VFakeNews
p254
aVAmerica
p255
aVMAGA
p256
aVGoldenGlobes
p257
aVLiberalLogic
p258
asg14
S"RT @MightyBusterBro: MERYL STREEP She knows her #FakeNews is what's best for #America#AmericaFirst #MAGA #GoldenGlobes #LiberalLogic"
p259
sg16
g17
(S'\x07\xe1\x01\t\x17;3\x00\x00\x00'
p260
tp261
Rp262
sg21
(lp263
S'MightyBusterBro'
p264
asba(iTweetDB
Tweet
p265
(dp266
g6
S'Richard Pennie'
p267
sg8
S'89431901'
p268
sg10
(lp269
VStrangerThings
p270
aVGoldenGlobes
p271
asg14
S'RT @HollywoodLife: So cute! The #StrangerThings kids had the best time at the #GoldenGlobes https://t.co/nW65dzJKVz'
p272
sg16
g17
(S'\x07\xe1\x01\t\x17;3\x00\x00\x00'
p273
tp274
Rp275
sg21
(lp276
VHollywoodLife
p277
asba(iTweetDB
Tweet
p278
(dp279
g6
S'jason wooten'
p280
sg8
S'184730523'
p281
sg10
(lp282
VEmmaStones
p283
asg14
S'RT @emmastonecom: You know who else won last night? #EmmaStones glam squad  @rachel_goodwin @mararoszak &amp; Petraoh and her Valentino dre'
p284
sg16
g17
(S'\x07\xe1\x01\t\x17;3\x00\x00\x00'
p285
tp286
Rp287
sg21
(lp288
S'emmastonecom'
p289
aS'rachel_goodwin'
p290
aS'mararoszak'
p291
asba(iTweetDB
Tweet
p292
(dp293
g6
S'A'
p294
sg8
S'2703018415'
p295
sg10
(lp296
VGoldenGlobes
p297
asg14
S"RT @extratv: .@jtimberlake &amp; @jessicabiel's red carpet interview turns into a love fest! https://t.co/3QRJX9f6nh #GoldenGlobes https://t.co"
p298
sg16
g17
(S'\x07\xe1\x01\t\x17;3\x00\x00\x00'
p299
tp300
Rp301
sg21
(lp302
Vextratv
p303
aVjtimberlake
p304
aVjessicabiel
p305
asba(iTweetDB
Tweet
p306
(dp307
g6
S'Sophia'
p308
sg8
S'3156943212'
p309
sg10
(lp310
VGoldenGlobes
p311
asg14
S'RT @goldenglobes: Kristen Wiig and @SteveCarell team up to present Best Motion Picture - Animated. #GoldenGlobes https://t.co/456617TZCG'
p312
sg16
g17
(S'\x07\xe1\x01\t\x17;1\x00\x00\x00'
p313
tp314
Rp315
sg21
(lp316
Vgoldenglobes
p317
aVSteveCarell
p318
asba(iTweetDB
Tweet
p319
(dp320
g6
S'Steven Starnes'
p321
sg8
S'763811406705819649'
p322
sg10
(lp323
VGoldenGlobes
p324
aVTrumpWonhttps
p325
asg14
S"RT @nia4_trump: I didn't watch #GoldenGlobes I heard many celebs were there who were supposed to have left the US after #TrumpWonhttps:"
p326
sg16
g17
(S'\x07\xe1\x01\t\x17;/\x00\x00\x00'
p327
tp328
Rp329
sg21
(lp330
S'nia4_trump'
p331
asba(iTweetDB
Tweet
p332
(dp333
g6
S'Lem Nivram'
p334
sg8
S'785187383176077313'
p335
sg10
(lp336
VMerylStreep
p337
aVGoldenGlobes
p338
asg14
S'RT @WeNeedTrump: Hollywood and #MerylStreep are vastly underestimating the power of the Trump movement. #GoldenGlobes'
p339
sg16
g17
(S'\x07\xe1\x01\t\x17;.\x00\x00\x00'
p340
tp341
Rp342
sg21
(lp343
S'WeNeedTrump'
p344
asba(iTweetDB
Tweet
p345
(dp346
g6
S'ByeByeHellary'
p347
sg8
S'775574552080375815'
p348
sg10
(lp349
VGoldenGlobes
p350
asg14
S'RT @TEN_GOP: WATCH: Diamond and Silk DESTROY Hollywood Elite Meryl Streep #GoldenGlobes https://t.co/iyRhtT2Xsu'
p351
sg16
g17
(S'\x07\xe1\x01\t\x17;-\x00\x00\x00'
p352
tp353
Rp354
sg21
(lp355
VTEN_GOP
p356
asba(iTweetDB
Tweet
p357
(dp358
g6
S'Gallinini'
p359
sg8
S'2728534228'
p360
sg10
(lp361
VGoldenGlobes
p362
asg14
S'RT @riotwomennn: The respected Meryl Streep at the #GoldenGlobes reminding us of the disrespectful &amp; disrespected vile Trump &amp; this stunnin'
p363
sg16
g17
(S'\x07\xe1\x01\t\x17;-\x00\x00\x00'
p364
tp365
Rp366
sg21
(lp367
S'riotwomennn'
p368
asba(iTweetDB
Tweet
p369
(dp370
g6
S'Stacey Jane'
p371
sg8
S'1660972351'
p372
sg10
(lp373
VMerylStreep
p374
asg14
S"RT @VABVOX: Here's the video of #MerylStreep's speech. Best speech you're going to hear all year (except POTUS farewell Tues).https://t.c"
p375
sg16
g17
(S'\x07\xe1\x01\t\x17;-\x00\x00\x00'
p376
tp377
Rp378
sg21
(lp379
S'VABVOX'
p380
asba(iTweetDB
Tweet
p381
(dp382
g6
S'katy'
p383
sg8
S'1050479095'
p384
sg10
(lp385
VGo
p386
asg14
S'RT @THR: Tom Hiddleston on Carrie Fisher: "If we can take any lesson from her, it\'s to live as fully as we can" https://t.co/ZV55V8f5xW #Go'
p387
sg16
g17
(S'\x07\xe1\x01\t\x17;-\x00\x00\x00'
p388
tp389
Rp390
sg21
(lp391
VTHR
p392
asba(iTweetDB
Tweet
p393
(dp394
g6
S'Stardust'
p395
sg8
S'56443257'
p396
sg10
(lp397
VGoldenGlobes
p398
asg14
S'RT @Essence: The #GoldenGlobes After Party was as lit as the red carpet: https://t.co/MRJ9R55EEM https://t.co/GxiA0kI7GN'
p399
sg16
g17
(S'\x07\xe1\x01\t\x17;-\x00\x00\x00'
p400
tp401
Rp402
sg21
(lp403
VEssence
p404
asba(iTweetDB
Tweet
p405
(dp406
g6
S'PATRIOTCONNECTION-LA'
p407
sg8
S'593975078'
p408
sg10
(lp409
VGoldenGlobes
p410
asg14
S"RT @TEN_GOP: Apparently celebrities still haven't gotten the message - WE DON'T CARE WHAT YOU THINK.#GoldenGlobes https://t.co/lFQGBDq0aG"
p411
sg16
g17
(S'\x07\xe1\x01\t\x17;+\x00\x00\x00'
p412
tp413
Rp414
sg21
(lp415
VTEN_GOP
p416
asba(iTweetDB
Tweet
p417
(dp418
g6
S'Grace Vasquez'
p419
sg8
S'570567264'
p420
sg10
(lp421
VMerylStreep
p422
aVGoldenGlobes
p423
asg14
S'Talk about IGNORANT!! But her captive audience ate up the BS spewed up there! #MerylStreep #GoldenGlobes https://t.co/mlI5BEkodl'
p424
sg16
g17
(S'\x07\xe1\x01\t\x17;*\x00\x00\x00'
p425
tp426
Rp427
sg21
(lp428
sba(iTweetDB
Tweet
p429
(dp430
g6
S'Goddess'
p431
sg8
S'2484881056'
p432
sg10
(lp433
VGoldenGlobes
p434
asg14
S'RT @MakeupForWOC: "I see you. We see you" Congrats @TraceeEllisRoss on being the 1st black woman to win a #GoldenGlobes Best TV Series A'
p435
sg16
g17
(S'\x07\xe1\x01\t\x17;*\x00\x00\x00'
p436
tp437
Rp438
sg21
(lp439
S'MakeupForWOC'
p440
aS'TraceeEllisRoss'
p441
asba(iTweetDB
Tweet
p442
(dp443
g6
S"Sasha's tiny cupcake"
p444
sg8
S'800304320'
p445
sg10
(lp446
VGillianAnderson
p447
asg14
S'RT @Gi82ll: Here is Miss #GillianAnderson on Red Carpet @goldenglobes 2017 @believeinxfiles https://t.co/PfRmCbRaJp'
p448
sg16
g17
(S'\x07\xe1\x01\t\x17;)\x00\x00\x00'
p449
tp450
Rp451
sg21
(lp452
VGi82ll
p453
aVgoldenglobes
p454
aVbelieveinxfiles
p455
asba(iTweetDB
Tweet
p456
(dp457
g6
S'Joseph Duffy'
p458
sg8
S'2897699699'
p459
sg10
(lp460
VGoldenGlobes
p461
aVMAGA
p462
aVmondaymotivation
p463
asg14
S'RT @SandraTXAS: ...and they wonder how Trump won#Hollywood#LiberalsUnite#MerylStreep #GoldenGlobes #MAGA #mondaymotivation https://t'
p464
sg16
g17
(S'\x07\xe1\x01\t\x17;(\x00\x00\x00'
p465
tp466
Rp467
sg21
(lp468
S'SandraTXAS'
p469
asba(iTweetDB
Tweet
p470
(dp471
g6
S'Barbee Bryan'
p472
sg8
S'3257276071'
p473
sg10
(lp474
Vthefive
p475
aVGoldenGlobes
p476
asg14
S'RT @Hardline_Stance: #thefive Gutfeld on #GoldenGlobes Meryl Streep rant: "Trump shoulda tweeted \'Youre no Glenn Close.\' That woulda got'
p477
sg16
g17
(S"\x07\xe1\x01\t\x17;'\x00\x00\x00"
p478
tp479
Rp480
sg21
(lp481
S'Hardline_Stance'
p482
asba(iTweetDB
Tweet
p483
(dp484
g6
S'Louvois'
p485
sg8
S'2448000006'
p486
sg10
(lp487
VGoldenGlobes
p488
asg14
S'RT @VogueRunway: Winona Ryder wears @viktor_and_rolf on the #GoldenGlobes red carpet. More: https://t.co/1u6ygU3ZYN https://t.co/bjainbArmo'
p489
sg16
g17
(S"\x07\xe1\x01\t\x17;'\x00\x00\x00"
p490
tp491
Rp492
sg21
(lp493
VVogueRunway
p494
aVviktor_and_rolf
p495
asba(iTweetDB
Tweet
p496
(dp497
g6
S'adeplorble'
p498
sg8
S'86317143'
p499
sg10
(lp500
VGoldenGlobes
p501
aVMerylStreep
p502
asg14
S'RT @immigrant4trump: WATCH: Diamond and Silk DESTROY Hollywood Elite Meryl Streep #GoldenGlobes #MerylStreep https://t.co/Pv3L5VJNTI'
p503
sg16
g17
(S'\x07\xe1\x01\t\x17;&\x00\x00\x00'
p504
tp505
Rp506
sg21
(lp507
Vimmigrant4trump
p508
asba(iTweetDB
Tweet
p509
(dp510
g6
S'FREDDIE'
p511
sg8
S'104937163'
p512
sg10
(lp513
VGoldenGlobes
p514
asg14
S'RT @politico: "When the powerful use their position to bully others, we all lose": Meryl Streep rips Trump at the #GoldenGlobes https://t.c'
p515
sg16
g17
(S'\x07\xe1\x01\t\x17;%\x00\x00\x00'
p516
tp517
Rp518
sg21
(lp519
S'politico'
p520
asba(iTweetDB
Tweet
p521
(dp522
g6
S'Sophia'
p523
sg8
S'3156943212'
p524
sg10
(lp525
VGoldenGlobes
p526
asg14
S'RT @goldenglobes: Congratulations to Zootopia (@DisneyZootopia) - Best Animated Feature Film - #GoldenGlobes https://t.co/QKhrkwZvzS'
p527
sg16
g17
(S'\x07\xe1\x01\t\x17;$\x00\x00\x00'
p528
tp529
Rp530
sg21
(lp531
Vgoldenglobes
p532
aVDisneyZootopia
p533
asba(iTweetDB
Tweet
p534
(dp535
g6
S'DEPLORABLE Saska'
p536
sg8
S'30492475'
p537
sg10
(lp538
VGoldenGlobes
p539
aVM
p540
asg14
S'RT @ANOMALY1: Pompous Disgraceful Hypocrite Meryl Streep Bashes Trump at #GoldenGlobes, ignores Clinton Scandals , Endless Wars &amp; Lies ! #M'
p541
sg16
g17
(S'\x07\xe1\x01\t\x17;$\x00\x00\x00'
p542
tp543
Rp544
sg21
(lp545
S'ANOMALY1'
p546
asba(iTweetDB
Tweet
p547
(dp548
g6
S'aRthur'
p549
sg8
S'505372294'
p550
sg10
(lp551
Vlalaland
p552
aVGoldenGlobes
p553
asg14
S'RT @Variety: Emma Stone wins best actress for #lalaland https://t.co/DqdA0k8PVX #GoldenGlobes https://t.co/jZHSqumCAr'
p554
sg16
g17
(S'\x07\xe1\x01\t\x17;#\x00\x00\x00'
p555
tp556
Rp557
sg21
(lp558
VVariety
p559
asba(iTweetDB
Tweet
p560
(dp561
g6
S'Andrea Rose Pass'
p562
sg8
S'2203657075'
p563
sg10
(lp564
VGoldenGlobes
p565
asg14
S'RT @THR: The #GoldenGlobes pays tribute to Carrie Fisher and Debbie Reynolds https://t.co/GBSxVwtW60 https://t.co/Kj2ub1Xez3'
p566
sg16
g17
(S'\x07\xe1\x01\t\x17;"\x00\x00\x00'
p567
tp568
Rp569
sg21
(lp570
VTHR
p571
asba(iTweetDB
Tweet
p572
(dp573
g6
S'KAILA'
p574
sg8
S'37217346'
p575
sg10
(lp576
VGoldenGlobes
p577
asg14
S'RT @TheTylt: RT if you agree Issa Rae has no need to be insecure in that stunning #GoldenGlobes Siriano gown!https://t.co/w4Zucw6CHD#Is'
p578
sg16
g17
(S'\x07\xe1\x01\t\x17;!\x00\x00\x00'
p579
tp580
Rp581
sg21
(lp582
S'TheTylt'
p583
asba(iTweetDB
Tweet
p584
(dp585
g6
S'Closet On Top'
p586
sg8
S'781216966128250880'
p587
sg10
(lp588
VGoldenGlobes
p589
aVFashion
p590
asg14
S'The best and teh worst #GoldenGlobes #Fashion  https://t.co/jaH3sRoSJi'
p591
sg16
g17
(S'\x07\xe1\x01\t\x17;!\x00\x00\x00'
p592
tp593
Rp594
sg21
(lp595
sba(iTweetDB
Tweet
p596
(dp597
g6
S'Sophia'
p598
sg8
S'3156943212'
p599
sg10
(lp600
VGoldenGlobes
p601
asg14
S'RT @goldenglobes: Congratulations to Damien Chazelle - Best Screenplay - La La Land (@LaLaLand) - #GoldenGlobes https://t.co/rgOcFEiD2r'
p602
sg16
g17
(S'\x07\xe1\x01\t\x17;!\x00\x00\x00'
p603
tp604
Rp605
sg21
(lp606
Vgoldenglobes
p607
aVLaLaLand
p608
asba(iTweetDB
Tweet
p609
(dp610
g6
S'Donna McArdle'
p611
sg8
S'268571122'
p612
sg10
(lp613
VTrump
p614
aVTrumpLeaks
p615
aVtheresistance
p616
aVgoldenglobes
p617
aVMeryl
p618
asg14
S'RT @funder: Jared Kushner let in to Harvard cuz his dad stapled $2.5M chk to his app #Trump #TrumpLeaks #theresistance #goldenglobes #Meryl'
p619
sg16
g17
(S'\x07\xe1\x01\t\x17; \x00\x00\x00'
p620
tp621
Rp622
sg21
(lp623
S'funder'
p624
asba(iTweetDB
Tweet
p625
(dp626
g6
S'cutegirlandkurt1'
p627
sg8
S'2452266984'
p628
sg10
(lp629
VGoldenGlobes
p630
asg14
S"RT @UniversalORL: How an award show calls itself the #GoldenGlobes yet doesn't have a category for Best Globe, we'll never understand. http"
p631
sg16
g17
(S'\x07\xe1\x01\t\x17; \x00\x00\x00'
p632
tp633
Rp634
sg21
(lp635
S'UniversalORL'
p636
asba(iTweetDB
Tweet
p637
(dp638
g6
S'Judy'
p639
sg8
S'3304214939'
p640
sg10
(lp641
VGoldenGlobes
p642
asg14
S'RT @Cinemathread: MOONLIGHT wins for Best Motion Picture, Drama! FINALLY #GoldenGlobes'
p643
sg16
g17
(S'\x07\xe1\x01\t\x17; \x00\x00\x00'
p644
tp645
Rp646
sg21
(lp647
S'Cinemathread'
p648
asba(iTweetDB
Tweet
p649
(dp650
g6
S'line'
p651
sg8
S'42736192'
p652
sg10
(lp653
VGoldenGlobes
p654
asg14
S"RT @FallonTonight: ICYMI: @JimmyFallon's #GoldenGlobes Cold Open https://t.co/QY2Zvn3KwK https://t.co/SkkLgOgiXv"
p655
sg16
g17
(S'\x07\xe1\x01\t\x17; \x00\x00\x00'
p656
tp657
Rp658
sg21
(lp659
VFallonTonight
p660
aVJimmyFallon
p661
asba(iTweetDB
Tweet
p662
(dp663
g6
S'Sophia'
p664
sg8
S'3156943212'
p665
sg10
(lp666
VGoldenGlobes
p667
asg14
S'RT @goldenglobes: Congrats to @RyanGosling, who won #GoldenGlobes Best Performance by an Actor in a Motion Picture - Musical or Comedy! htt'
p668
sg16
g17
(S'\x07\xe1\x01\t\x17;\x1f\x00\x00\x00'
p669
tp670
Rp671
sg21
(lp672
S'goldenglobes'
p673
aS'RyanGosling'
p674
asba(iTweetDB
Tweet
p675
(dp676
g6
S'Luca Milanese'
p677
sg8
S'2386163494'
p678
sg10
(lp679
VGoldenGlobes
p680
asg14
S'RT @goldenglobes: Always arriving in style, @lilycollins makes her way onto the #GoldenGlobes Red Carpet. https://t.co/Xv8cQb1Gph'
p681
sg16
g17
(S'\x07\xe1\x01\t\x17;\x1f\x00\x00\x00'
p682
tp683
Rp684
sg21
(lp685
Vgoldenglobes
p686
aVlilycollins
p687
asba(iTweetDB
Tweet
p688
(dp689
g6
S'Carmela RBL'
p690
sg8
S'30600780'
p691
sg10
(lp692
VGoldenGlobes
p693
aVsorrynotsorry
p694
asg14
S'RT @nicktsimmons: Jim Carrey explaining what award shows really are. #GoldenGlobes #sorrynotsorry  https://t.co/nKFYNi5Q3x'
p695
sg16
g17
(S'\x07\xe1\x01\t\x17;\x1e\x00\x00\x00'
p696
tp697
Rp698
sg21
(lp699
Vnicktsimmons
p700
asba(iTweetDB
Tweet
p701
(dp702
g6
S'Lauren'
p703
sg8
S'54179944'
p704
sg10
(lp705
S'GoldenGlobes'
p706
aS'MerylStreepForPresident'
p707
asg14
S"'Actors should stay out of politics' cry the people who elected Reagan, Schwarzenegger and Trump #GoldenGlobes #MerylStreepForPresident"
p708
sg16
g17
(S'\x07\xe1\x01\t\x17;\x1e\x00\x00\x00'
p709
tp710
Rp711
sg21
(lp712
sba(iTweetDB
Tweet
p713
(dp714
g6
S'Heather'
p715
sg8
S'111146590'
p716
sg10
(lp717
VGoldenGlobes
p718
asg14
S'RT @TheCrownNetflix: Honoured. Humbled. Happy.The Crown - Winner of Best Television Series - Drama. #GoldenGlobes https://t.co/O5N8UiZQV7'
p719
sg16
g17
(S'\x07\xe1\x01\t\x17;\x1d\x00\x00\x00'
p720
tp721
Rp722
sg21
(lp723
VTheCrownNetflix
p724
asba(iTweetDB
Tweet
p725
(dp726
g6
S'ByeByeHellary'
p727
sg8
S'775574552080375815'
p728
sg10
(lp729
VGoldenGlobes
p730
asg14
S'RT @BellTrumpkin: @MissLizzyNJ @NtoAlaska Why do they think their jobs are so important? Most celebs are Narcissists..#GoldenGlobes'
p731
sg16
g17
(S'\x07\xe1\x01\t\x17;\x1d\x00\x00\x00'
p732
tp733
Rp734
sg21
(lp735
S'BellTrumpkin'
p736
aS'MissLizzyNJ'
p737
aS'NtoAlaska'
p738
asba(iTweetDB
Tweet
p739
(dp740
g6
S'S Joubert'
p741
sg8
S'4123047552'
p742
sg10
(lp743
VGoldenGlobes
p744
asg14
S'RT @ArtLify: "Acting is a way of living out one\'s insanity."~Isabelle Huppert Best Actress (Drama:Elle) #GoldenGlobes by Marianne Ros'
p745
sg16
g17
(S'\x07\xe1\x01\t\x17;\x1d\x00\x00\x00'
p746
tp747
Rp748
sg21
(lp749
S'ArtLify'
p750
asba(iTweetDB
Tweet
p751
(dp752
g6
S' '
p753
sg8
S'807964585366089728'
p754
sg10
(lp755
sg14
S'RT @JarettSays: Has Priyanka Chopra ever looked less than sensational on a red carpet? (rhetorical question because I know the answer is no'
p756
sg16
g17
(S'\x07\xe1\x01\t\x17;\x1d\x00\x00\x00'
p757
tp758
Rp759
sg21
(lp760
S'JarettSays'
p761
asba(iTweetDB
Tweet
p762
(dp763
g6
S'Hakea Clavata'
p764
sg8
S'3252884832'
p765
sg10
(lp766
VGoldenGlobes
p767
asg14
S'RT @charliekirk11: Hollywood believes in tolerance and diversity. As long as you vote and think like them #GoldenGlobes'
p768
sg16
g17
(S'\x07\xe1\x01\t\x17;\x1b\x00\x00\x00'
p769
tp770
Rp771
sg21
(lp772
S'charliekirk11'
p773
asba(iTweetDB
Tweet
p774
(dp775
g6
S'Stefany Lascano'
p776
sg8
S'2737943804'
p777
sg10
(lp778
VGoldenGlobes
p779
asg14
S'RT @twistmag: .@DoveCameron had a total bombshell moment at this #GoldenGlobes party red carpet! More pics &gt;&gt; https://t.co/rQSTcmYC1j https'
p780
sg16
g17
(S'\x07\xe1\x01\t\x17;\x1a\x00\x00\x00'
p781
tp782
Rp783
sg21
(lp784
Vtwistmag
p785
aVDoveCameron
p786
asba(iTweetDB
Tweet
p787
(dp788
g6
S'London...Paul London'
p789
sg8
S'898967750'
p790
sg10
(lp791
VLuchaUnderground
p792
aVGoldenGlobes
p793
asg14
S'RT @heathermyim: Hey #LuchaUnderground fans, forget the #GoldenGlobes or award season, come watch @DelClosedFist this Sat @PackTheater w/ g'
p794
sg16
g17
(S'\x07\xe1\x01\t\x17;\x19\x00\x00\x00'
p795
tp796
Rp797
sg21
(lp798
S'heathermyim'
p799
aS'DelClosedFist'
p800
aS'PackTheater'
p801
asba(iTweetDB
Tweet
p802
(dp803
g6
S'Sophia'
p804
sg8
S'3156943212'
p805
sg10
(lp806
VGoldenGl
p807
asg14
S'RT @goldenglobes: Dev Patel and Sunny Pawar introduce a clip from @LionMovie, which is nominated for Best Motion Picture - Drama. #GoldenGl'
p808
sg16
g17
(S'\x07\xe1\x01\t\x17;\x18\x00\x00\x00'
p809
tp810
Rp811
sg21
(lp812
S'goldenglobes'
p813
aS'LionMovie'
p814
asba(iTweetDB
Tweet
p815
(dp816
g6
S'  '
p817
sg8
S'4171684919'
p818
sg10
(lp819
VMerylStreep
p820
aVGoldenGlobes
p821
asg14
S"RT @LucidNewsNet: Hi #MerylStreep #GoldenGlobes Was Trump Actually Mocking A Disabled Reporter? New Video Suggests He Wasn't https://t.co/"
p822
sg16
g17
(S'\x07\xe1\x01\t\x17;\x18\x00\x00\x00'
p823
tp824
Rp825
sg21
(lp826
VLucidNewsNet
p827
asba(iTweetDB
Tweet
p828
(dp829
g6
S'Tamia Taylor'
p830
sg8
S'725843382552154112'
p831
sg10
(lp832
VGoldenGlobes
p833
asg14
S"RT @hitb0ynick: tracee ellis ross was best dressed at the #GoldenGlobes you can't tell me differently"
p834
sg16
g17
(S'\x07\xe1\x01\t\x17;\x18\x00\x00\x00'
p835
tp836
Rp837
sg21
(lp838
S'hitb0ynick'
p839
asba(iTweetDB
Tweet
p840
(dp841
g6
S'Sophia'
p842
sg8
S'3156943212'
p843
sg10
(lp844
sg14
S'RT @goldenglobes: Congratulations to Ryan Gosling (@RyanGosling) - Best Actor in a Motion Picture - Comedy or Musical - La La Land (@LaLaLa'
p845
sg16
g17
(S'\x07\xe1\x01\t\x17;\x17\x00\x00\x00'
p846
tp847
Rp848
sg21
(lp849
S'goldenglobes'
p850
aS'RyanGosling'
p851
aS'LaLaLa'
p852
asba(iTweetDB
Tweet
p853
(dp854
g6
S'hbday zayn'
p855
sg8
S'3374681451'
p856
sg10
(lp857
VGoldenGlobes
p858
asg14
S'RT @goldenglobes: Things got really Strange on the #GoldenGlobes Red Carpet. @Stranger_Things https://t.co/F6w0qLGMzt'
p859
sg16
g17
(S'\x07\xe1\x01\t\x17;\x16\x00\x00\x00'
p860
tp861
Rp862
sg21
(lp863
Vgoldenglobes
p864
aVStranger_Things
p865
asba(iTweetDB
Tweet
p866
(dp867
g6
S'Josiane Ochman'
p868
sg8
S'27390336'
p869
sg10
(lp870
S'MerylStreep'
p871
aS'GoldenGlobes'
p872
aS'Trump'
p873
asg14
S'#MerylStreep was the highlight of the #GoldenGlobes awards shows invariably boring but she struck real gold with her speech. #Trump go away.'
p874
sg16
g17
(S'\x07\xe1\x01\t\x17;\x15\x00\x00\x00'
p875
tp876
Rp877
sg21
(lp878
sba(iTweetDB
Tweet
p879
(dp880
g6
S'Sophia'
p881
sg8
S'3156943212'
p882
sg10
(lp883
VGoldenGlobes
p884
asg14
S'RT @goldenglobes: Best Performance by an Actress in a Supporting Role in any Motion Picture goes to @violadavis! #GoldenGlobes https://t.co'
p885
sg16
g17
(S'\x07\xe1\x01\t\x17;\x15\x00\x00\x00'
p886
tp887
Rp888
sg21
(lp889
Vgoldenglobes
p890
aVvioladavis
p891
asba(iTweetDB
Tweet
p892
(dp893
g6
S'Retinue Media'
p894
sg8
S'1333209312'
p895
sg10
(lp896
VGoldenGlobes
p897
asg14
S'RT @goldenglobes: Congratulations to La La Land (@LaLaLand) - Best Motion Picture - Comedy or Musical - #GoldenGlobes https://t.co/EFcYV8bM'
p898
sg16
g17
(S'\x07\xe1\x01\t\x17;\x14\x00\x00\x00'
p899
tp900
Rp901
sg21
(lp902
Vgoldenglobes
p903
aVLaLaLand
p904
asba(iTweetDB
Tweet
p905
(dp906
g6
S'Chris Clarkin'
p907
sg8
S'723703628775735296'
p908
sg10
(lp909
VGoldenGlobes
p910
aVMerylStreep
p911
asg14
S'RT @tmillennialpost: Here are our thoughts on Meryl Streep! What do you think? #GoldenGlobes #MerylStreep https://t.co/NCBJoQllMH'
p912
sg16
g17
(S'\x07\xe1\x01\t\x17;\x12\x00\x00\x00'
p913
tp914
Rp915
sg21
(lp916
Vtmillennialpost
p917
asba(iTweetDB
Tweet
p918
(dp919
g6
S'Diana'
p920
sg8
S'86535361'
p921
sg10
(lp922
VMerylStreep
p923
aVChicagoKidnapping
p924
aVTrump
p925
aVGoldenGlobes
p926
aVMAGA
p927
aVGO
p928
asg14
S'RT @ScottErnst0331: #MerylStreep never lamented the disabled victim of the #ChicagoKidnapping b/c he liked #Trump.  #GoldenGlobes #MAGA #GO'
p929
sg16
g17
(S'\x07\xe1\x01\t\x17;\x12\x00\x00\x00'
p930
tp931
Rp932
sg21
(lp933
S'ScottErnst0331'
p934
asba(iTweetDB
Tweet
p935
(dp936
g6
S'ValenXx'
p937
sg8
S'2508092006'
p938
sg10
(lp939
VGoldenGlobes
p940
asg14
S'RT @billboard: Meryl Streep criticizes Donald Trump at #GoldenGlobes, Twitter reacts https://t.co/wLkUgvyF1b https://t.co/Laf74HgKQm'
p941
sg16
g17
(S'\x07\xe1\x01\t\x17;\x12\x00\x00\x00'
p942
tp943
Rp944
sg21
(lp945
Vbillboard
p946
asba(iTweetDB
Tweet
p947
(dp948
g6
S'TheDeaconSpeakin'
p949
sg8
S'409697836'
p950
sg10
(lp951
VMaga
p952
aVGoldenGlobes
p953
asg14
S'RT @immigrant4trump: Video: Meryl Streep Defends Child Rapist Roman Polanski "I am Really Sorry That He is In Jail" #Maga #GoldenGlobes htt'
p954
sg16
g17
(S'\x07\xe1\x01\t\x17;\x11\x00\x00\x00'
p955
tp956
Rp957
sg21
(lp958
S'immigrant4trump'
p959
asba(iTweetDB
Tweet
p960
(dp961
g6
S'Suzanna Vasquez'
p962
sg8
S'387787061'
p963
sg10
(lp964
VGoldenGlobes
p965
asg14
S"RT @kerrywashington: ICYMI: Kerry chats @Scandal and more with @ExtraTV -kw's krew #GoldenGlobes https://t.co/GG0tg17JNb"
p966
sg16
g17
(S'\x07\xe1\x01\t\x17;\x11\x00\x00\x00'
p967
tp968
Rp969
sg21
(lp970
Vkerrywashington
p971
aVScandal
p972
aVExtraTV
p973
asba(iTweetDB
Tweet
p974
(dp975
g6
S'muvaaaBitch'
p976
sg8
S'2226916682'
p977
sg10
(lp978
VGoldenGlobes
p979
asg14
S'RT @JarettSays: Line for Best Dressed at the #GoldenGlobes clearly starts behind Gina Rodriguez https://t.co/oGl4kbofPO'
p980
sg16
g17
(S'\x07\xe1\x01\t\x17;\x10\x00\x00\x00'
p981
tp982
Rp983
sg21
(lp984
VJarettSays
p985
asba(iTweetDB
Tweet
p986
(dp987
g6
S'Souren'
p988
sg8
S'737959048306434048'
p989
sg10
(lp990
VGoldenGlobes
p991
asg14
S"RT @goldenglobes: From candids to laughs to fist pumps, all the best moments from last night's EPIC #GoldenGlobes! https://t.co/hM9sJAt3Zv"
p992
sg16
g17
(S'\x07\xe1\x01\t\x17;\x0e\x00\x00\x00'
p993
tp994
Rp995
sg21
(lp996
Vgoldenglobes
p997
asba(iTweetDB
Tweet
p998
(dp999
g6
S'Deborah Delaney'
p1000
sg8
S'793259437884600322'
p1001
sg10
(lp1002
sg14
S'Thank you @goldenglobes for creating the perfect platform for Hollywood to show why Trump won.'
p1003
sg16
g17
(S'\x07\xe1\x01\t\x17;\x0e\x00\x00\x00'
p1004
tp1005
Rp1006
sg21
(lp1007
S'goldenglobes'
p1008
asba(iTweetDB
Tweet
p1009
(dp1010
g6
S'EMMA-STONE.COM'
p1011
sg8
S'101954691'
p1012
sg10
(lp1013
VEmmaStones
p1014
asg14
S'You know who else won last night? #EmmaStones glam squad  @rachel_goodwin @mararoszak &amp; Petraoh and her Valenti https://t.co/3Xn9OZnZwH'
p1015
sg16
g17
(S'\x07\xe1\x01\t\x17;\r\x00\x00\x00'
p1016
tp1017
Rp1018
sg21
(lp1019
Vrachel_goodwin
p1020
aVmararoszak
p1021
asba(iTweetDB
Tweet
p1022
(dp1023
g6
S'Miriam Munoz'
p1024
sg8
S'3193855424'
p1025
sg10
(lp1026
VGoldenGlobes
p1027
aVHFPA
p1028
asg14
S'RT @jeanniemai: Incase you missed it, you can watch @goldenglobes Red Carpet again! #GoldenGlobes #HFPA https://t.co/s2TEqV9juP'
p1029
sg16
g17
(S'\x07\xe1\x01\t\x17;\x0c\x00\x00\x00'
p1030
tp1031
Rp1032
sg21
(lp1033
Vjeanniemai
p1034
aVgoldenglobes
p1035
asba(iTweetDB
Tweet
p1036
(dp1037
g6
S'Kismet'
p1038
sg8
S'1273485416'
p1039
sg10
(lp1040
VGoldenGlobes
p1041
asg14
S'RT @minniemelange: Wow. @IssaRae in @CSiriano is a contender for best dressed at the #GoldenGlobes https://t.co/AGgOiYpZvt'
p1042
sg16
g17
(S'\x07\xe1\x01\t\x17;\x0c\x00\x00\x00'
p1043
tp1044
Rp1045
sg21
(lp1046
Vminniemelange
p1047
aVIssaRae
p1048
aVCSiriano
p1049
asba(iTweetDB
Tweet
p1050
(dp1051
g6
S'Luca Milanese'
p1052
sg8
S'2386163494'
p1053
sg10
(lp1054
VGoldenGlobes
p1055
asg14
S'RT @goldenglobes: .@emrata turns heads as she takes the #GoldenGlobes Red Carpet! https://t.co/9YPqnuK4cl'
p1056
sg16
g17
(S'\x07\xe1\x01\t\x17;\x0b\x00\x00\x00'
p1057
tp1058
Rp1059
sg21
(lp1060
Vgoldenglobes
p1061
aVemrata
p1062
asba(iTweetDB
Tweet
p1063
(dp1064
g6
S'Alpha Bromo'
p1065
sg8
S'543635471'
p1066
sg10
(lp1067
VGoldenGlobes
p1068
aVMerylStreep
p1069
asg14
S'RT @LGBT_Activist: LOL This may be the best response yet! Epic smackdown! #GoldenGlobes #MerylStreep https://t.co/ApdK7VLZ8k'
p1070
sg16
g17
(S'\x07\xe1\x01\t\x17;\t\x00\x00\x00'
p1071
tp1072
Rp1073
sg21
(lp1074
VLGBT_Activist
p1075
asba(iTweetDB
Tweet
p1076
(dp1077
g6
S'Sophia'
p1078
sg8
S'3156943212'
p1079
sg10
(lp1080
VGol
p1081
asg14
S'RT @goldenglobes: Congratulations to Viola Davis (@violadavis) - Best Supporting Actress in a Motion Picture - Fences (@FencesMovie) - #Gol'
p1082
sg16
g17
(S'\x07\xe1\x01\t\x17;\t\x00\x00\x00'
p1083
tp1084
Rp1085
sg21
(lp1086
S'goldenglobes'
p1087
aS'violadavis'
p1088
aS'FencesMovie'
p1089
asba(iTweetDB
Tweet
p1090
(dp1091
g6
S'MAGA JAN 20'
p1092
sg8
S'86989456'
p1093
sg10
(lp1094
VMerylStreep
p1095
aVGoldenGlobes
p1096
asg14
S"RT @immigrant4trump: Sorry #MerylStreep, If you repeat A LIE over 100 Times, Doesn't Make it True, You Watch Too much CNN! #GoldenGlobes ht"
p1097
sg16
g17
(S'\x07\xe1\x01\t\x17;\x08\x00\x00\x00'
p1098
tp1099
Rp1100
sg21
(lp1101
S'immigrant4trump'
p1102
asba(iTweetDB
Tweet
p1103
(dp1104
g6
S'ash'
p1105
sg8
S'789866987744796672'
p1106
sg10
(lp1107
VLionMovie
p1108
asg14
S'RT @LionMovie: #LionMovie is nominated for four @GoldenGlobes, including Best Picture, Drama! NOW PLAYING in theaters EVERYWHERE. https://t'
p1109
sg16
g17
(S'\x07\xe1\x01\t\x17;\x07\x00\x00\x00'
p1110
tp1111
Rp1112
sg21
(lp1113
S'LionMovie'
p1114
aS'GoldenGlobes'
p1115
asba(iTweetDB
Tweet
p1116
(dp1117
g6
S'Louvois'
p1118
sg8
S'2448000006'
p1119
sg10
(lp1120
VGoldenGlobes
p1121
asg14
S'RT @VogueRunway: From runway to red carpet: @SofiaVergara wears @ZMURADofficial Fall 2016 Couture at the #GoldenGlobes. More: https://t.co/'
p1122
sg16
g17
(S'\x07\xe1\x01\t\x17;\x07\x00\x00\x00'
p1123
tp1124
Rp1125
sg21
(lp1126
VVogueRunway
p1127
aVSofiaVergara
p1128
aVZMURADofficial
p1129
asba(iTweetDB
Tweet
p1130
(dp1131
g6
S'Margena A. Christian'
p1132
sg8
S'32793096'
p1133
sg10
(lp1134
VGoldenGlobes
p1135
asg14
S'RT @KeyaMorgan: Guess who did the moonwalk last night on the red carpet of the #GoldenGlobes https://t.co/evXEzkSAQK'
p1136
sg16
g17
(S'\x07\xe1\x01\t\x17;\x05\x00\x00\x00'
p1137
tp1138
Rp1139
sg21
(lp1140
VKeyaMorgan
p1141
asba(iTweetDB
Tweet
p1142
(dp1143
g6
S'Kathie Lind'
p1144
sg8
S'865185030'
p1145
sg10
(lp1146
VGoldenGlobes
p1147
asg14
S'RT @AmericanMex067: What Hollywood does:Glorifies:Violence Drug use Misogyny But Trump is the problem? #GoldenGlobes https://t.c'
p1148
sg16
g17
(S'\x07\xe1\x01\t\x17;\x02\x00\x00\x00'
p1149
tp1150
Rp1151
sg21
(lp1152
S'AmericanMex067'
p1153
asba(iTweetDB
Tweet
p1154
(dp1155
g6
S'Njeanous'
p1156
sg8
S'61349124'
p1157
sg10
(lp1158
VMerylStreep
p1159
aVGoldenGlobes
p1160
asg14
S'Trumps Response to #MerylStreep was so tacky &amp; unfounded calling herover-rated actress #GoldenGlobes honored he https://t.co/u3KJaTEbIH'
p1161
sg16
g17
(S'\x07\xe1\x01\t\x17;\x02\x00\x00\x00'
p1162
tp1163
Rp1164
sg21
(lp1165
sba(iTweetDB
Tweet
p1166
(dp1167
g6
S'HuffPost UK Ent'
p1168
sg8
S'22987426'
p1169
sg10
(lp1170
VGoldenGlobes
p1171
asg14
S'Donald Trump hits back at Meryl Streep after her scathing #GoldenGlobes attack https://t.co/XBXOV4rsJk https://t.co/ForBmdwZoQ'
p1172
sg16
g17
(S'\x07\xe1\x01\t\x17;\x01\x00\x00\x00'
p1173
tp1174
Rp1175
sg21
(lp1176
sba(iTweetDB
Tweet
p1177
(dp1178
g6
S'Jazzbeau'
p1179
sg8
S'2266091264'
p1180
sg10
(lp1181
VGoldenGlobes
p1182
asg14
S"RT @andrewklavan: Suggestion: replace next year's #GoldenGlobes with reruns of Paddy Chayefsky's 1978 Academy Awards presentation. https://"
p1183
sg16
g17
(S'\x07\xe1\x01\t\x17;\x00\x00\x00\x00'
p1184
tp1185
Rp1186
sg21
(lp1187
S'andrewklavan'
p1188
asba(iTweetDB
Tweet
p1189
(dp1190
g6
S'Louvois'
p1191
sg8
S'2448000006'
p1192
sg10
(lp1193
VGoldenGlobes
p1194
asg14
S'RT @VogueRunway: .@BlakeLively stuns in Atelier @Versace at the #GoldenGlobes: https://t.co/aq3Q07fq12 https://t.co/zXs7JMXktZ'
p1195
sg16
g17
(S'\x07\xe1\x01\t\x17;\x00\x00\x00\x00'
p1196
tp1197
Rp1198
sg21
(lp1199
VVogueRunway
p1200
aVBlakeLively
p1201
aVVersace
p1202
asba(iTweetDB
Tweet
p1203
(dp1204
g6
S'Saki77'
p1205
sg8
S'2904015942'
p1206
sg10
(lp1207
VHiddenFences
p1208
aVGoldenGlobes
p1209
asg14
S"RT @iJesseWilliams: I'mma let you finish, but #HiddenFences was the best film of the year! #GoldenGlobes https://t.co/pl7jRrBjP4"
p1210
sg16
g17
(S'\x07\xe1\x01\t\x17:;\x00\x00\x00'
p1211
tp1212
Rp1213
sg21
(lp1214
ViJesseWilliams
p1215
asba(iTweetDB
Tweet
p1216
(dp1217
g6
S'  '
p1218
sg8
S'136433079'
p1219
sg10
(lp1220
VGoldenGlobes
p1221
asg14
S'Pure Goddesses on the Carpet last night... #GoldenGlobes https://t.co/F3CLAvZ9PJ'
p1222
sg16
g17
(S'\x07\xe1\x01\t\x17::\x00\x00\x00'
p1223
tp1224
Rp1225
sg21
(lp1226
sba(iTweetDB
Tweet
p1227
(dp1228
g6
S'enya'
p1229
sg8
S'1136017676'
p1230
sg10
(lp1231
VLALALAND
p1232
aVGoldenGlobes
p1233
asg14
S'RT @LaLaLand: The city of stars has never shined so brightly.  Congrats #LALALAND on 7 #GoldenGlobes wins including Best Picture! https://'
p1234
sg16
g17
(S'\x07\xe1\x01\t\x17:9\x00\x00\x00'
p1235
tp1236
Rp1237
sg21
(lp1238
S'LaLaLand'
p1239
asba(iTweetDB
Tweet
p1240
(dp1241
g6
S'4NoAJinkuga'
p1242
sg8
S'3018347239'
p1243
sg10
(lp1244
VGolden
p1245
asg14
S"RT @WeNeedTrump: I said it before the night started, if Americans cared about the leftist Hollywood views, Trump wouldn't have won. #Golden"
p1246
sg16
g17
(S'\x07\xe1\x01\t\x17:5\x00\x00\x00'
p1247
tp1248
Rp1249
sg21
(lp1250
S'WeNeedTrump'
p1251
asba(iTweetDB
Tweet
p1252
(dp1253
g6
S'Sophia'
p1254
sg8
S'3156943212'
p1255
sg10
(lp1256
VGoldenGlobes
p1257
asg14
S"RT @goldenglobes: Round of applause for this year's winner for Best Television Series - Musical or Comedy, @AtlantaFX! #GoldenGlobes https:"
p1258
sg16
g17
(S'\x07\xe1\x01\t\x17:4\x00\x00\x00'
p1259
tp1260
Rp1261
sg21
(lp1262
S'goldenglobes'
p1263
aS'AtlantaFX'
p1264
asba(iTweetDB
Tweet
p1265
(dp1266
g6
S'drnbaron'
p1267
sg8
S'42436866'
p1268
sg10
(lp1269
sg14
S'RT @susanlpressler: @goldenglobes My dying handicapped brother watched Mr. Trump and cried. He fought his whole life. Thank you Meryl for y'
p1270
sg16
g17
(S'\x07\xe1\x01\t\x17:3\x00\x00\x00'
p1271
tp1272
Rp1273
sg21
(lp1274
S'susanlpressler'
p1275
aS'goldenglobes'
p1276
asba(iTweetDB
Tweet
p1277
(dp1278
g6
S'#Trump4Brazil'
p1279
sg8
S'1137979866'
p1280
sg10
(lp1281
VGoldenGlobes
p1282
asg14
S'RT @goldenglobes: Jake Gyllenhaal presents a clip from @deadpoolmovie, which is nominated at the #GoldenGlobes for Best Motion Picture - Co'
p1283
sg16
g17
(S'\x07\xe1\x01\t\x17:1\x00\x00\x00'
p1284
tp1285
Rp1286
sg21
(lp1287
S'goldenglobes'
p1288
aS'deadpoolmovie'
p1289
asba(iTweetDB
Tweet
p1290
(dp1291
g6
S'Sharon'
p1292
sg8
S'839339563'
p1293
sg10
(lp1294
VGoldenGlobes
p1295
asg14
S'RT @AJEnglish: "Disrespect invites disrespect. Violence incites violence."Meryl Streep takes on Donald Trump in #GoldenGlobes speech. htt'
p1296
sg16
g17
(S'\x07\xe1\x01\t\x17:/\x00\x00\x00'
p1297
tp1298
Rp1299
sg21
(lp1300
S'AJEnglish'
p1301
asba(iTweetDB
Tweet
p1302
(dp1303
g6
S'Fashion Savage'
p1304
sg8
S'1327465903'
p1305
sg10
(lp1306
VOnset
p1307
aVGoldenGlobes
p1308
aVredcarpet
p1309
asg14
S'#Onset today with https://t.co/5Po1oA16Kx discussing the best and worst dressed on the #GoldenGlobes #redcarpet. https://t.co/IK797saKGn'
p1310
sg16
g17
(S'\x07\xe1\x01\t\x17:/\x00\x00\x00'
p1311
tp1312
Rp1313
sg21
(lp1314
sba(iTweetDB
Tweet
p1315
(dp1316
g6
S'ByeByeHellary'
p1317
sg8
S'775574552080375815'
p1318
sg10
(lp1319
VMerylStreep
p1320
aVGoldenGlobes
p1321
asg14
S'RT @Team_Trump45: Gibson &amp; Vaughn ~Two Trump supporters forced to watch psycho #MerylStreep #GoldenGlobes https://t.co/JtTXWITlkQ'
p1322
sg16
g17
(S'\x07\xe1\x01\t\x17:/\x00\x00\x00'
p1323
tp1324
Rp1325
sg21
(lp1326
VTeam_Trump45
p1327
asba(iTweetDB
Tweet
p1328
(dp1329
g6
S'Skybirdgirl'
p1330
sg8
S'22631975'
p1331
sg10
(lp1332
sg14
S"RT @DanRather: Meryl Streep's anti-Trump speech at The Golden Globes touches on protecting journalists RT @goldenglobes: https://t.co/FTubR"
p1333
sg16
g17
(S'\x07\xe1\x01\t\x17:-\x00\x00\x00'
p1334
tp1335
Rp1336
sg21
(lp1337
VDanRather
p1338
aVgoldenglobes
p1339
asba(iTweetDB
Tweet
p1340
(dp1341
g6
S'Sophia'
p1342
sg8
S'3156943212'
p1343
sg10
(lp1344
VGoldenGlobes
p1345
asg14
S'RT @goldenglobes: Congratulations to Atlanta (@AtlantaFX) - Best Television Series - Comedy or Musical - #GoldenGlobes https://t.co/XuldZxu'
p1346
sg16
g17
(S'\x07\xe1\x01\t\x17:,\x00\x00\x00'
p1347
tp1348
Rp1349
sg21
(lp1350
Vgoldenglobes
p1351
aVAtlantaFX
p1352
asba(iTweetDB
Tweet
p1353
(dp1354
g6
S'ByeByeHellary'
p1355
sg8
S'775574552080375815'
p1356
sg10
(lp1357
sg14
S'RT @lgmaterna: HILLARY said it best: NOT ACCEPTING ELECTION RESULTS IS A DIRECT THREAT TO DEMOCRACY, thus Hollywood is a threat, not victim'
p1358
sg16
g17
(S'\x07\xe1\x01\t\x17:+\x00\x00\x00'
p1359
tp1360
Rp1361
sg21
(lp1362
S'lgmaterna'
p1363
asba(iTweetDB
Tweet
p1364
(dp1365
g6
S'VIP PR London'
p1366
sg8
S'762964235282444289'
p1367
sg10
(lp1368
VGoldenGlobes
p1369
asg14
S"RT @goldenglobes: Still thinking about last nights #GoldenGlobes? Stay tuned for a video recap of all of last night's best moments! https:"
p1370
sg16
g17
(S'\x07\xe1\x01\t\x17:+\x00\x00\x00'
p1371
tp1372
Rp1373
sg21
(lp1374
S'goldenglobes'
p1375
asba(iTweetDB
Tweet
p1376
(dp1377
g6
S'Beauty Tips'
p1378
sg8
S'701924400849776641'
p1379
sg10
(lp1380
VGoldenGlobes
p1381
asg14
S'Viola Davis had a striking moment in MichaelKors at the  #GoldenGlobes. https://t.co/1lr4FOlvVe https://t.co/y9jezjaY9l'
p1382
sg16
g17
(S'\x07\xe1\x01\t\x17:)\x00\x00\x00'
p1383
tp1384
Rp1385
sg21
(lp1386
sba(iTweetDB
Tweet
p1387
(dp1388
g6
S'Bijan Moshaver'
p1389
sg8
S'442077506'
p1390
sg10
(lp1391
VGo
p1392
asg14
S'RT @Channel4News: When the powerful use their position to bully others, we all lose. Meryl Streep and Hugh Laurie attack Trump at the #Go'
p1393
sg16
g17
(S'\x07\xe1\x01\t\x17:(\x00\x00\x00'
p1394
tp1395
Rp1396
sg21
(lp1397
S'Channel4News'
p1398
asba(iTweetDB
Tweet
p1399
(dp1400
g6
S'Mary Anne Wetton'
p1401
sg8
S'296590796'
p1402
sg10
(lp1403
VDonaldTrump
p1404
aVGoldenGlobes
p1405
asg14
S'RT @YahooMovies: Meryl Streep totally called out #DonaldTrump in her #GoldenGlobes speech: https://t.co/Smb6Jq5GI8 https://t.co/RwTUJKaTr5'
p1406
sg16
g17
(S'\x07\xe1\x01\t\x17:(\x00\x00\x00'
p1407
tp1408
Rp1409
sg21
(lp1410
VYahooMovies
p1411
asba(iTweetDB
Tweet
p1412
(dp1413
g6
S'Sophia'
p1414
sg8
S'3156943212'
p1415
sg10
(lp1416
VGoldenGlo
p1417
asg14
S'RT @goldenglobes: Congratulations to @TraceeEllisRoss - Best TV Series Actress - Comedy or Musical - Black-ish (@black_ishABC) - #GoldenGlo'
p1418
sg16
g17
(S'\x07\xe1\x01\t\x17:&\x00\x00\x00'
p1419
tp1420
Rp1421
sg21
(lp1422
S'goldenglobes'
p1423
aS'TraceeEllisRoss'
p1424
aS'black_ishABC'
p1425
asba(iTweetDB
Tweet
p1426
(dp1427
g6
S'Ricky Chu'
p1428
sg8
S'26670904'
p1429
sg10
(lp1430
VMerylStreep
p1431
aVMe
p1432
asg14
S'RT @TippeTyYay: Before you criticize #MerylStreep for being a celebrity w/ an opinion remember who Trump is, a celebrity w/ an opinion. #Me'
p1433
sg16
g17
(S'\x07\xe1\x01\t\x17:#\x00\x00\x00'
p1434
tp1435
Rp1436
sg21
(lp1437
S'TippeTyYay'
p1438
asba(iTweetDB
Tweet
p1439
(dp1440
g6
S'Glenn York'
p1441
sg8
S'503308612'
p1442
sg10
(lp1443
VGoldenGlobes
p1444
asg14
S'RT @MusicNewsRumors: Carrie Underwood looked amazing on the #GoldenGlobes Red Carpet! @carrieunderwood https://t.co/X7gLLI7l7V'
p1445
sg16
g17
(S'\x07\xe1\x01\t\x17:"\x00\x00\x00'
p1446
tp1447
Rp1448
sg21
(lp1449
VMusicNewsRumors
p1450
aVcarrieunderwood
p1451
asba(iTweetDB
Tweet
p1452
(dp1453
g6
S'HYDEN OTTO'
p1454
sg8
S'164184007'
p1455
sg10
(lp1456
VGoldenGlobes
p1457
asg14
S"RT @australian: Is Meryl Streep's speech why @realDonaldTrump won? https://t.co/Czs1Xgxwzb #GoldenGlobes https://t.co/62JvgbSMCW"
p1458
sg16
g17
(S'\x07\xe1\x01\t\x17:!\x00\x00\x00'
p1459
tp1460
Rp1461
sg21
(lp1462
Vaustralian
p1463
aVrealDonaldTrump
p1464
asba(iTweetDB
Tweet
p1465
(dp1466
g6
S'Sophia'
p1467
sg8
S'3156943212'
p1468
sg10
(lp1469
VGoldenG
p1470
asg14
S'RT @goldenglobes: Emma Stone and @VancityReynolds present the first award of the night for Best Supporting Actor - Motion Picture. #GoldenG'
p1471
sg16
g17
(S'\x07\xe1\x01\t\x17:!\x00\x00\x00'
p1472
tp1473
Rp1474
sg21
(lp1475
S'goldenglobes'
p1476
aS'VancityReynolds'
p1477
asba(iTweetDB
Tweet
p1478
(dp1479
g6
S'Hornet'
p1480
sg8
S'1732405544'
p1481
sg10
(lp1482
VMerylStreep
p1483
aVFakeNews
p1484
aVGoldenGlobes
p1485
asg14
S'RT @VoteTrumpPics: Out of touch #MerylStreep is lying &amp; spreading #FakeNews about @realDonaldTrump at #GoldenGlobes@mark_wahlberg said it'
p1486
sg16
g17
(S'\x07\xe1\x01\t\x17:\x1f\x00\x00\x00'
p1487
tp1488
Rp1489
sg21
(lp1490
S'VoteTrumpPics'
p1491
aS'realDonaldTrump'
p1492
asba(iTweetDB
Tweet
p1493
(dp1494
g6
S'Richard Penze'
p1495
sg8
S'750024433'
p1496
sg10
(lp1497
sg14
S'@goldenglobes @realDonaldTrump not everyone is a "Hillary flunky" many of us just think you are a disgraceful and disgusting piece of sh*t..'
p1498
sg16
g17
(S'\x07\xe1\x01\t\x17:\x1f\x00\x00\x00'
p1499
tp1500
Rp1501
sg21
(lp1502
S'goldenglobes'
p1503
aS'realDonaldTrump'
p1504
asba(iTweetDB
Tweet
p1505
(dp1506
g6
S'Sophia'
p1507
sg8
S'3156943212'
p1508
sg10
(lp1509
sg14
S'RT @goldenglobes: Congratulations to Aaron Taylor-Johnson - Best Supporting Actor in a Motion Picture in Nocturnal Animals (@nocturnalanima'
p1510
sg16
g17
(S'\x07\xe1\x01\t\x17:\x1f\x00\x00\x00'
p1511
tp1512
Rp1513
sg21
(lp1514
S'goldenglobes'
p1515
aS'nocturnalanima'
p1516
asba(iTweetDB
Tweet
p1517
(dp1518
g6
S'Sophia'
p1519
sg8
S'3156943212'
p1520
sg10
(lp1521
VGoldenGlobes
p1522
asg14
S'RT @goldenglobes: Such a look, @blakelively and @VancityReynolds! They have arrived on the #GoldenGlobes Red Carpet. https://t.co/mkABeiRomx'
p1523
sg16
g17
(S'\x07\xe1\x01\t\x17:\x1d\x00\x00\x00'
p1524
tp1525
Rp1526
sg21
(lp1527
Vgoldenglobes
p1528
aVblakelively
p1529
aVVancityReynolds
p1530
asba(iTweetDB
Tweet
p1531
(dp1532
g6
S'Valerie A. Pedicone'
p1533
sg8
S'4253693434'
p1534
sg10
(lp1535
VGoldenGlobes
p1536
aVERedCarpet
p1537
asg14
S'RT @RedCarpetTeam: Brie Larson is all smiles on the #GoldenGlobes red carpet  #ERedCarpet https://t.co/o0ltIG1kCm'
p1538
sg16
g17
(S'\x07\xe1\x01\t\x17:\x1c\x00\x00\x00'
p1539
tp1540
Rp1541
sg21
(lp1542
VRedCarpetTeam
p1543
asba(iTweetDB
Tweet
p1544
(dp1545
g6
S"Carol's Candy"
p1546
sg8
S'94346289'
p1547
sg10
(lp1548
VMerylStreep
p1549
asg14
S'RT @WalshFreedom: 62 million Americans voted for Trump, but #MerylStreep &amp; 1,280 Hollywood libs last nite showed they have no fucking clue'
p1550
sg16
g17
(S'\x07\xe1\x01\t\x17:\x1b\x00\x00\x00'
p1551
tp1552
Rp1553
sg21
(lp1554
S'WalshFreedom'
p1555
asba(iTweetDB
Tweet
p1556
(dp1557
g6
S'C. A. Barber'
p1558
sg8
S'892023264'
p1559
sg10
(lp1560
Vgoldenglobes
p1561
asg14
S"RT @TimRunsHisMouth: I didn't watch the full #goldenglobes, but I'm sure most of the celebrities took a stand for the tortured handicapped"
p1562
sg16
g17
(S'\x07\xe1\x01\t\x17:\x1b\x00\x00\x00'
p1563
tp1564
Rp1565
sg21
(lp1566
S'TimRunsHisMouth'
p1567
asba(iTweetDB
Tweet
p1568
(dp1569
g6
S'Philip'
p1570
sg8
S'791581250100326400'
p1571
sg10
(lp1572
VGoldenGlobes
p1573
asg14
S"RT @Film4: Later tonight at 11.20pm, we're celebrating Emma Stone's Best Actress win at the #GoldenGlobes with her star-making performance"
p1574
sg16
g17
(S'\x07\xe1\x01\t\x17:\x1a\x00\x00\x00'
p1575
tp1576
Rp1577
sg21
(lp1578
S'Film4'
p1579
asba(iTweetDB
Tweet
p1580
(dp1581
g6
S'icedragon'
p1582
sg8
S'2940082627'
p1583
sg10
(lp1584
VGoldenGlobes
p1585
asg14
S"RT @officialcharts: ICYMI: One film cleaned up on this year's #GoldenGlobes music prizes... https://t.co/rQQPPwVwIx https://t.co/jNtzX5EUfn"
p1586
sg16
g17
(S'\x07\xe1\x01\t\x17:\x19\x00\x00\x00'
p1587
tp1588
Rp1589
sg21
(lp1590
Vofficialcharts
p1591
asba(iTweetDB
Tweet
p1592
(dp1593
g6
S'fran Duartte'
p1594
sg8
S'713364626696744960'
p1595
sg10
(lp1596
VGoldenGlobes
p1597
asg14
S'RT @9000x: Meryl Streep vs Trump(Subtitulado) #GoldenGlobes https://t.co/LB5naDExTb'
p1598
sg16
g17
(S'\x07\xe1\x01\t\x17:\x19\x00\x00\x00'
p1599
tp1600
Rp1601
sg21
(lp1602
V9000x
p1603
asba(iTweetDB
Tweet
p1604
(dp1605
g6
S'lana'
p1606
sg8
S'408239647'
p1607
sg10
(lp1608
VMarylStreep
p1609
aVGoldenGlobes
p1610
asg14
S'RT @fornarisusi: "When the powerful use their position to bully others, we all lose" #MarylStreep #GoldenGlobes  https://t.co/riQnM4LGwy'
p1611
sg16
g17
(S'\x07\xe1\x01\t\x17:\x17\x00\x00\x00'
p1612
tp1613
Rp1614
sg21
(lp1615
Vfornarisusi
p1616
asba(iTweetDB
Tweet
p1617
(dp1618
g6
S'Nee-Nee'
p1619
sg8
S'33527916'
p1620
sg10
(lp1621
VGoldenGlobes
p1622
aVTwitterFingers
p1623
asg14
S'RT @ebrojiapp: After Meryl Streep at the #GoldenGlobes, Donald Trump #TwitterFingers about to be like: https://t.co/Swt47DZ7rZ'
p1624
sg16
g17
(S'\x07\xe1\x01\t\x17:\x16\x00\x00\x00'
p1625
tp1626
Rp1627
sg21
(lp1628
Vebrojiapp
p1629
asba(iTweetDB
Tweet
p1630
(dp1631
g6
S'tx conservative'
p1632
sg8
S'1292620070'
p1633
sg10
(lp1634
VMotivationalMonday
p1635
asg14
S'RT @carrieksada: .#MotivationalMonday:Why do actors w/ Multiple Personality Disorders believe the rest of America cares what they thi'
p1636
sg16
g17
(S'\x07\xe1\x01\t\x17:\x13\x00\x00\x00'
p1637
tp1638
Rp1639
sg21
(lp1640
S'carrieksada'
p1641
asba(iTweetDB
Tweet
p1642
(dp1643
g6
S'Debbie Hayesstoker'
p1644
sg8
S'796850543486521345'
p1645
sg10
(lp1646
VGoldenGlobes
p1647
asg14
S'RT @NBCDFW: Meryl Streep takes aim at Donald Trump during the #GoldenGlobes. "disrespect invites disrespect." https://t.co/JuhIXhg0LN https'
p1648
sg16
g17
(S'\x07\xe1\x01\t\x17:\x13\x00\x00\x00'
p1649
tp1650
Rp1651
sg21
(lp1652
VNBCDFW
p1653
asba(iTweetDB
Tweet
p1654
(dp1655
g6
S'Cameron'
p1656
sg8
S'391110906'
p1657
sg10
(lp1658
VMerylStreep
p1659
aVGoldenGlobeshtt
p1660
asg14
S'RT @bocavista2016: I think the majority of Americans felt like Peppermint Patty tonight listening to #MerylStreep at the #GoldenGlobeshtt'
p1661
sg16
g17
(S'\x07\xe1\x01\t\x17:\x10\x00\x00\x00'
p1662
tp1663
Rp1664
sg21
(lp1665
S'bocavista2016'
p1666
asba(iTweetDB
Tweet
p1667
(dp1668
g6
S'Shmedium Marshall'
p1669
sg8
S'758470735811665920'
p1670
sg10
(lp1671
VMerylStreep
p1672
aVGoldenGlobes
p1673
asg14
S"RT @BrittPettibone: Basically the faces of every Trump Supporter watching #MerylStreep's speech at the #GoldenGlobes. https://t.co/8j0gNrQ6"
p1674
sg16
g17
(S'\x07\xe1\x01\t\x17:\x10\x00\x00\x00'
p1675
tp1676
Rp1677
sg21
(lp1678
VBrittPettibone
p1679
asba(iTweetDB
Tweet
p1680
(dp1681
g6
S'amy'
p1682
sg8
S'2971963948'
p1683
sg10
(lp1684
VGoldenGlobes
p1685
asg14
S"RT @MTVNews:  @diegoluna_ can't stop talking about how much he loves Star Wars fans on the #GoldenGlobes red carpet: https://t.co/lrMZYcTg"
p1686
sg16
g17
(S'\x07\xe1\x01\t\x17:\r\x00\x00\x00'
p1687
tp1688
Rp1689
sg21
(lp1690
VMTVNews
p1691
aVdiegoluna_
p1692
asba(iTweetDB
Tweet
p1693
(dp1694
g6
S'Jeanette Mendez'
p1695
sg8
S'809853296714412032'
p1696
sg10
(lp1697
VGoldenGlobes
p1698
aVMerylStreep
p1699
asg14
S"RT @ThePerezHilton: THE most important moment you need to watch from the #GoldenGlobes! #MerylStreep's acceptance speech! HERE: https://t.c"
p1700
sg16
g17
(S'\x07\xe1\x01\t\x17:\n\x00\x00\x00'
p1701
tp1702
Rp1703
sg21
(lp1704
S'ThePerezHilton'
p1705
asba(iTweetDB
Tweet
p1706
(dp1707
g6
S'priscilla '
p1708
sg8
S'2224146158'
p1709
sg10
(lp1710
VGoldenGlobes
p1711
asg14
S'RT @MTV: Do you think P. Sawyer is wearing a B. Davis Clothes Over Bros original? #GoldenGlobes https://t.co/H5Mt8OETkO'
p1712
sg16
g17
(S'\x07\xe1\x01\t\x17:\x08\x00\x00\x00'
p1713
tp1714
Rp1715
sg21
(lp1716
VMTV
p1717
asba(iTweetDB
Tweet
p1718
(dp1719
g6
g165
sg8
S'2541685716'
p1720
sg10
(lp1721
VGoldenGlobes
p1722
asg14
S'RT @voguemagazine: Sarah Jessica Parker looked ready to walk down the aisle in Vera Wang on the #GoldenGlobes red carpet. https://t.co/OWQk'
p1723
sg16
g17
(S'\x07\xe1\x01\t\x17:\x07\x00\x00\x00'
p1724
tp1725
Rp1726
sg21
(lp1727
Vvoguemagazine
p1728
asba(iTweetDB
Tweet
p1729
(dp1730
g6
S'Andrea'
p1731
sg8
S'166228403'
p1732
sg10
(lp1733
VGoldenGlobes
p1734
asg14
S'RT @archiveddie: Eddie Redmayne at the #GoldenGlobes Red Carpet https://t.co/YhAd2DNjS1'
p1735
sg16
g17
(S'\x07\xe1\x01\t\x17:\x06\x00\x00\x00'
p1736
tp1737
Rp1738
sg21
(lp1739
Varchiveddie
p1740
asba(iTweetDB
Tweet
p1741
(dp1742
g6
S'Laura Brown'
p1743
sg8
S'1093108238'
p1744
sg10
(lp1745
sg14
S'RT @oureric: I would watch an entire evening of Viola Davis and Meryl Streep making speeches and and elevating the human race word by word.'
p1746
sg16
g17
(S'\x07\xe1\x01\t\x17:\x06\x00\x00\x00'
p1747
tp1748
Rp1749
sg21
(lp1750
S'oureric'
p1751
asba(iTweetDB
Tweet
p1752
(dp1753
g6
S'Harvey Pooka'
p1754
sg8
S'3012841963'
p1755
sg10
(lp1756
VMerylStreep
p1757
aVGoldenGlobes
p1758
asg14
S"RT @immigrant4trump: Sorry Hollywood Elitist #MerylStreep, If you repeat A LIE over 100 Times, Doesn't Make it True #GoldenGlobes https://t"
p1759
sg16
g17
(S'\x07\xe1\x01\t\x17:\x06\x00\x00\x00'
p1760
tp1761
Rp1762
sg21
(lp1763
S'immigrant4trump'
p1764
asba(iTweetDB
Tweet
p1765
(dp1766
g6
S'Ali Horan Irwin '
p1767
sg8
S'949820100'
p1768
sg10
(lp1769
VGoldenGlobes
p1770
aVRyanReynolds
p1771
aVAndrewGarfield
p1772
asg14
S'RT @SuperheroSteel: And, Best Kiss went to.. Spideypool!What the heck, #GoldenGlobes?!?!?! #RyanReynolds #AndrewGarfield https://t.co/Apfc'
p1773
sg16
g17
(S'\x07\xe1\x01\t\x17:\x03\x00\x00\x00'
p1774
tp1775
Rp1776
sg21
(lp1777
VSuperheroSteel
p1778
asba(iTweetDB
Tweet
p1779
(dp1780
g6
S'Patchwork'
p1781
sg8
S'764487086690840577'
p1782
sg10
(lp1783
VGoldenGlobes
p1784
aVTrump
p1785
asg14
S'RT @Carlos_S01: Roman Polanski the pedophile who raped little girls. Cc @atomicdeathfuck @NeoCivitas #GoldenGlobes #Trump  https://t.co/HsB'
p1786
sg16
g17
(S'\x07\xe1\x01\t\x17:\x00\x00\x00\x00'
p1787
tp1788
Rp1789
sg21
(lp1790
VCarlos_S01
p1791
aVatomicdeathfuck
p1792
aVNeoCivitas
p1793
asba(iTweetDB
Tweet
p1794
(dp1795
g6
g165
sg8
S'1634381143'
p1796
sg10
(lp1797
VGoldenGlobes
p1798
asg14
S'RT @mariegill_: my queen Lily J [Collins] slaying the #GoldenGlobes red carpet!  https://t.co/XFTzd0Lvae'
p1799
sg16
g17
(S'\x07\xe1\x01\t\x179;\x00\x00\x00'
p1800
tp1801
Rp1802
sg21
(lp1803
Vmariegill_
p1804
asba(iTweetDB
Tweet
p1805
(dp1806
g6
S'Valerie A. Pedicone'
p1807
sg8
S'4253693434'
p1808
sg10
(lp1809
VERedCarpet
p1810
aVGoldenGlobes
p1811
asg14
S"RT @enews: She's never shined so brightly: Emma Stone arrives on the #ERedCarpet at the #GoldenGlobes. https://t.co/JCmxrBKHfv https://t.co"
p1812
sg16
g17
(S'\x07\xe1\x01\t\x179;\x00\x00\x00'
p1813
tp1814
Rp1815
sg21
(lp1816
Venews
p1817
asba(iTweetDB
Tweet
p1818
(dp1819
g6
S'Teddy  P I N K'
p1820
sg8
S'28720999'
p1821
sg10
(lp1822
VGoldenGlobe
p1823
asg14
S'RT @ScottPresler: I need Meryl Streep to think for me because Hillary Clinton raping Haiti of its money was ethical &amp; moral. #GoldenGlobe'
p1824
sg16
g17
(S'\x07\xe1\x01\t\x179:\x00\x00\x00'
p1825
tp1826
Rp1827
sg21
(lp1828
S'ScottPresler'
p1829
asba(iTweetDB
Tweet
p1830
(dp1831
g6
S'Catarina'
p1832
sg8
S'2867514148'
p1833
sg10
(lp1834
VMerylStreep
p1835
aVGoldenGlobes
p1836
asg14
S"RT @UgenesPolitics: I just wanna say that #MerylStreep probably had the best speech of 2017 and it's only Day 8 #GoldenGlobes https://t.co/"
p1837
sg16
g17
(S'\x07\xe1\x01\t\x179:\x00\x00\x00'
p1838
tp1839
Rp1840
sg21
(lp1841
VUgenesPolitics
p1842
asba(iTweetDB
Tweet
p1843
(dp1844
g6
S'jaxson'
p1845
sg8
S'881260794'
p1846
sg10
(lp1847
VGolden
p1848
asg14
S'RT @goldenglobes: Congratulations to Donald Glover - Best Actor in a Television Series - Comedy or Musical - Atlanta (@AtlantaFX) - #Golden'
p1849
sg16
g17
(S'\x07\xe1\x01\t\x1799\x00\x00\x00'
p1850
tp1851
Rp1852
sg21
(lp1853
S'goldenglobes'
p1854
aS'AtlantaFX'
p1855
asba(iTweetDB
Tweet
p1856
(dp1857
g6
S'Tony Bono'
p1858
sg8
S'257256436'
p1859
sg10
(lp1860
sg14
S"RT @shannonrwatts: Thank you Meryl Streep for calling out Donald Trump's despicable behavior. If we lose our compassion, we lose our humani"
p1861
sg16
g17
(S'\x07\xe1\x01\t\x1797\x00\x00\x00'
p1862
tp1863
Rp1864
sg21
(lp1865
S'shannonrwatts'
p1866
asba(iTweetDB
Tweet
p1867
(dp1868
g6
S'Stephanie Ellis'
p1869
sg8
S'725448948857458688'
p1870
sg10
(lp1871
sg14
S"@IMKristenBell @goldenglobes Holy hell, Kristen Bell. I like ya' best in your Saturday-morning self, but DAMN girl."
p1872
sg16
g17
(S'\x07\xe1\x01\t\x1796\x00\x00\x00'
p1873
tp1874
Rp1875
sg21
(lp1876
S'IMKristenBell'
p1877
aS'goldenglobes'
p1878
asba(iTweetDB
Tweet
p1879
(dp1880
g6
S'sophie turner news'
p1881
sg8
S'4842017577'
p1882
sg10
(lp1883
VGoldenGlobes
p1884
asg14
S"RT @badpostsophie: what do you think of sophie turner's #GoldenGlobes look?"
p1885
sg16
g17
(S'\x07\xe1\x01\t\x1795\x00\x00\x00'
p1886
tp1887
Rp1888
sg21
(lp1889
S'badpostsophie'
p1890
asba(iTweetDB
Tweet
p1891
(dp1892
g6
S'maria do bairr'
p1893
sg8
S'399675133'
p1894
sg10
(lp1895
VLALALAND
p1896
aVGoldenGlobes
p1897
asg14
S'RT @LaLaLand: #LALALAND is now the winner of a record-breaking 7 #GoldenGlobes including Best Picture!  See it in theaters today: https://'
p1898
sg16
g17
(S'\x07\xe1\x01\t\x1794\x00\x00\x00'
p1899
tp1900
Rp1901
sg21
(lp1902
S'LaLaLand'
p1903
asba(iTweetDB
Tweet
p1904
(dp1905
g6
S'F*ck Tr*mp'
p1906
sg8
S'362603401'
p1907
sg10
(lp1908
VGoldenGlobes
p1909
asg14
S'RT @DavidCornDC: Meryl Streep at #GoldenGlobes quietly slams Trump  for his performance mocking a disabled reporter. Stunning. A powerful a'
p1910
sg16
g17
(S'\x07\xe1\x01\t\x1793\x00\x00\x00'
p1911
tp1912
Rp1913
sg21
(lp1914
S'DavidCornDC'
p1915
asba(iTweetDB
Tweet
p1916
(dp1917
g6
S'Mark Krvavica'
p1918
sg8
S'415950174'
p1919
sg10
(lp1920
VGoldenGlobes
p1921
asg14
S'RT @abcWNN: Best tv series drama goes to @TheCrownNetflix.  #GoldenGlobes https://t.co/adLVw6MJv0'
p1922
sg16
g17
(S'\x07\xe1\x01\t\x1792\x00\x00\x00'
p1923
tp1924
Rp1925
sg21
(lp1926
VabcWNN
p1927
aVTheCrownNetflix
p1928
asba(iTweetDB
Tweet
p1929
(dp1930
g6
g165
sg8
S'1490359200'
p1931
sg10
(lp1932
VGoldenGlobes
p1933
asg14
S'RT @josesolismayen: Even if she was in New York Cate Blanchett somehow still managed to be the Best Dressed woman on #GoldenGlobes night '
p1934
sg16
g17
(S'\x07\xe1\x01\t\x1791\x00\x00\x00'
p1935
tp1936
Rp1937
sg21
(lp1938
S'josesolismayen'
p1939
asba(iTweetDB
Tweet
p1940
(dp1941
g6
S'David Reisig'
p1942
sg8
S'56321382'
p1943
sg10
(lp1944
VGoldenGlobes
p1945
asg14
S"RT @Lrihendry: Fallon and Meryl Streep used the #GoldenGlobes to attack Trump! Deplorables let's use Twitter to financially DESTROY them! #"
p1946
sg16
g17
(S'\x07\xe1\x01\t\x179/\x00\x00\x00'
p1947
tp1948
Rp1949
sg21
(lp1950
S'Lrihendry'
p1951
asba(iTweetDB
Tweet
p1952
(dp1953
g6
S'Maxx Poliachik'
p1954
sg8
S'21143229'
p1955
sg10
(lp1956
sg14
S'@DanRather @goldenglobes ... even the rights of journalists who have a clear agenda and only present one side of the story!'
p1957
sg16
g17
(S'\x07\xe1\x01\t\x179/\x00\x00\x00'
p1958
tp1959
Rp1960
sg21
(lp1961
S'DanRather'
p1962
aS'goldenglobes'
p1963
asba(iTweetDB
Tweet
p1964
(dp1965
g6
S'agibob'
p1966
sg8
S'286299170'
p1967
sg10
(lp1968
VMoonlight
p1969
aVGoldenGlobes
p1970
aVMoonlight
p1971
asg14
S'RT @The_Real_IMAN: Congrats to #Moonlight first film by black writer/director to win best film at #GoldenGlobes Must see #Moonlight https:/'
p1972
sg16
g17
(S'\x07\xe1\x01\t\x179.\x00\x00\x00'
p1973
tp1974
Rp1975
sg21
(lp1976
S'The_Real_IMAN'
p1977
asba(iTweetDB
Tweet
p1978
(dp1979
g6
S'5lupus'
p1980
sg8
S'3381775643'
p1981
sg10
(lp1982
sg14
S"RT @Reuters: Trump calls Meryl Streep 'overrated actress' as attack divides Americans https://t.co/ncGvwlUHTS https://t.co/Qlpn2w2RoI"
p1983
sg16
g17
(S'\x07\xe1\x01\t\x179*\x00\x00\x00'
p1984
tp1985
Rp1986
sg21
(lp1987
VReuters
p1988
asba(iTweetDB
Tweet
p1989
(dp1990
g6
S'judy vaz'
p1991
sg8
S'499328968'
p1992
sg10
(lp1993
sg14
S'RT @EWagmeister: .@violadavis asked backstage by reporter "in Trumps America, how do we make sure everyone has a shot at the American drea'
p1994
sg16
g17
(S'\x07\xe1\x01\t\x179&\x00\x00\x00'
p1995
tp1996
Rp1997
sg21
(lp1998
S'EWagmeister'
p1999
aS'violadavis'
p2000
asba(iTweetDB
Tweet
p2001
(dp2002
g6
S'AlliCat'
p2003
sg8
S'2427748481'
p2004
sg10
(lp2005
VGoldenGlobes
p2006
aVNashvilleCMT
p2007
asg14
S'RT @NashvilleCMT: .@ConnieBritton looked GORGEOUS on the #GoldenGlobes red carpet tonight!  #NashvilleCMT https://t.co/M8InzqNlrE'
p2008
sg16
g17
(S'\x07\xe1\x01\t\x179%\x00\x00\x00'
p2009
tp2010
Rp2011
sg21
(lp2012
VNashvilleCMT
p2013
aVConnieBritton
p2014
asba(iTweetDB
Tweet
p2015
(dp2016
g6
S'Ann Marie Cervino'
p2017
sg8
S'3346192018'
p2018
sg10
(lp2019
VGoldenGlo
p2020
asg14
S'RT @JoshNoneYaBiz: Where was Meryl Streep when 4 savages tied up, beat, tortured, &amp; humiliated a special needs Trump supporter?#GoldenGlo'
p2021
sg16
g17
(S'\x07\xe1\x01\t\x179"\x00\x00\x00'
p2022
tp2023
Rp2024
sg21
(lp2025
S'JoshNoneYaBiz'
p2026
asba(iTweetDB
Tweet
p2027
(dp2028
g6
S'Michael Means'
p2029
sg8
S'3078899252'
p2030
sg10
(lp2031
VMerylStreep
p2032
aVGoldenGlobes
p2033
aVTrump
p2034
aVTh
p2035
asg14
S'RT @Corporatocrazy: Mad #MerylStreep at loony liberal gala - #GoldenGlobes- repeated the lie that #Trump mocked the disabled reporter.#Th'
p2036
sg16
g17
(S'\x07\xe1\x01\t\x179\x1e\x00\x00\x00'
p2037
tp2038
Rp2039
sg21
(lp2040
S'Corporatocrazy'
p2041
asba(iTweetDB
Tweet
p2042
(dp2043
g6
S'Barb '
p2044
sg8
S'2355315353'
p2045
sg10
(lp2046
VGoldenGlobes
p2047
aVGreysAnatomy
p2048
asg14
S'RT @JChambersOnline: #GoldenGlobes 2007 - Best TV Drama - Winner: #GreysAnatomy... and then it was time to hit the after-parties.  http'
p2049
sg16
g17
(S'\x07\xe1\x01\t\x179\x1a\x00\x00\x00'
p2050
tp2051
Rp2052
sg21
(lp2053
S'JChambersOnline'
p2054
asba(iTweetDB
Tweet
p2055
(dp2056
g6
S'Luca Milanese'
p2057
sg8
S'2386163494'
p2058
sg10
(lp2059
VGoldenGlobes
p2060
asg14
S'RT @goldenglobes: Look who just arrived! @jtimberlake and @JessicaBiel look spectacular on the #GoldenGlobes Red Carpet tonight. https://t.'
p2061
sg16
g17
(S'\x07\xe1\x01\t\x179\x1a\x00\x00\x00'
p2062
tp2063
Rp2064
sg21
(lp2065
S'goldenglobes'
p2066
aS'jtimberlake'
p2067
aS'JessicaBiel'
p2068
asba(iTweetDB
Tweet
p2069
(dp2070
g6
S'Sue'
p2071
sg8
S'3890364820'
p2072
sg10
(lp2073
VGoldenGlobes
p2074
aVTheSocialCTV
p2075
asg14
S'RT @TheSocialCTV: Who were the best-dressed men on the #GoldenGlobes red carpet? Here are our picks! #TheSocialCTV https://t.co/wp54cqV5d2'
p2076
sg16
g17
(S'\x07\xe1\x01\t\x179\x19\x00\x00\x00'
p2077
tp2078
Rp2079
sg21
(lp2080
VTheSocialCTV
p2081
asba(iTweetDB
Tweet
p2082
(dp2083
g6
S'g'
p2084
sg8
S'754710770563190786'
p2085
sg10
(lp2086
VMerylStreep
p2087
aVGoldenGlobes
p2088
asg14
S'RT @immigrant4trump: WATCH: Tucker Carlson DESTROYS Hollywood Elite #MerylStreep For Pretending To Be An Outsider #GoldenGlobes https://t.c'
p2089
sg16
g17
(S'\x07\xe1\x01\t\x179\x18\x00\x00\x00'
p2090
tp2091
Rp2092
sg21
(lp2093
S'immigrant4trump'
p2094
asba(iTweetDB
Tweet
p2095
(dp2096
g6
S'Luca Milanese'
p2097
sg8
S'2386163494'
p2098
sg10
(lp2099
VGoldenGlobes
p2100
asg14
S'RT @goldenglobes: Ryan Tedder of @OneRepublic posing for pictures on the #GoldenGlobes Red Carpet! https://t.co/vAzTkCoJPb'
p2101
sg16
g17
(S'\x07\xe1\x01\t\x179\x17\x00\x00\x00'
p2102
tp2103
Rp2104
sg21
(lp2105
Vgoldenglobes
p2106
aVOneRepublic
p2107
asba(iTweetDB
Tweet
p2108
(dp2109
g6
S'Jaderz'
p2110
sg8
S'793486830377181185'
p2111
sg10
(lp2112
VZootopia
p2113
aVGoldenGlobes
p2114
asg14
S'RT @IMDb: Best Animated Film goes to...#Zootopia! https://t.co/gZTkpDJfjr #GoldenGlobes https://t.co/7Fy94R9L3h'
p2115
sg16
g17
(S'\x07\xe1\x01\t\x179\x16\x00\x00\x00'
p2116
tp2117
Rp2118
sg21
(lp2119
VIMDb
p2120
asba(iTweetDB
Tweet
p2121
(dp2122
g6
S'Jean Lebrun'
p2123
sg8
S'2499735536'
p2124
sg10
(lp2125
VMerylStreep
p2126
aVBegs
p2127
aVCelebrities
p2128
aVStop
p2129
aVDonaldTrump
p2130
aVGoldenGlobes
p2131
asg14
S'STREEP  M. 1) #MerylStreep #Begs #Celebrities to #Stop #DonaldTrump at  #GoldenGlobes   @goldenglobes  2017 https://t.co/PzXGjlY1XC @YouTube'
p2132
sg16
g17
(S'\x07\xe1\x01\t\x179\x14\x00\x00\x00'
p2133
tp2134
Rp2135
sg21
(lp2136
Vgoldenglobes
p2137
aVYouTube
p2138
asba(iTweetDB
Tweet
p2139
(dp2140
g6
S'Muhammad Junaid'
p2141
sg8
S'172051749'
p2142
sg10
(lp2143
VGoldenGlobes
p2144
asg14
S'Viola Davis had a striking moment in MichaelKors at the  #GoldenGlobes. https://t.co/XicMATueDG'
p2145
sg16
g17
(S'\x07\xe1\x01\t\x179\x13\x00\x00\x00'
p2146
tp2147
Rp2148
sg21
(lp2149
sba(iTweetDB
Tweet
p2150
(dp2151
g6
S'Jaderz'
p2152
sg8
S'793486830377181185'
p2153
sg10
(lp2154
VZootopia
p2155
aVGoldenGlobes
p2156
asg14
S"RT @Disney: .@DisneyAnimation's #Zootopia Wins Best Animated Picture at the #GoldenGlobes: https://t.co/zazWZRyAU6 https://t.co/fI3k3nLdz9"
p2157
sg16
g17
(S'\x07\xe1\x01\t\x179\x13\x00\x00\x00'
p2158
tp2159
Rp2160
sg21
(lp2161
VDisney
p2162
aVDisneyAnimation
p2163
asba(iTweetDB
Tweet
p2164
(dp2165
g6
S'Short-movie-reviews'
p2166
sg8
S'4092277522'
p2167
sg10
(lp2168
VGoldenGlobes
p2169
aVJimmyFallon
p2170
asg14
S"Jimmy Fallon's Golden Globes Cold Open #GoldenGlobes #JimmyFallon  https://t.co/EJ203SWNwn"
p2171
sg16
g17
(S'\x07\xe1\x01\t\x179\x13\x00\x00\x00'
p2172
tp2173
Rp2174
sg21
(lp2175
sba(iTweetDB
Tweet
p2176
(dp2177
g6
S'Carter Dane News'
p2178
sg8
S'706362070170636288'
p2179
sg10
(lp2180
sg14
S'RT @Kennaleigh1970: @_CARTERDANE @goldenglobes @HBO @cockyboys Oh Carter! You looked stunning! I hope you had the best time! &lt;3'
p2181
sg16
g17
(S'\x07\xe1\x01\t\x179\x13\x00\x00\x00'
p2182
tp2183
Rp2184
sg21
(lp2185
S'Kennaleigh1970'
p2186
aS'_CARTERDANE'
p2187
aS'goldenglobes'
p2188
aS'HBO'
p2189
aS'cockyboys'
p2190
asba(iTweetDB
Tweet
p2191
(dp2192
g6
S'the unknown'
p2193
sg8
S'1736651924'
p2194
sg10
(lp2195
VGoldenGlobes
p2196
asg14
S'RT @THR: Sarah Paulson thanks Ryan Murphy at the #GoldenGlobes: "You changed my life" https://t.co/0Cozfh60EP https://t.co/EBTpaCdjrI'
p2197
sg16
g17
(S'\x07\xe1\x01\t\x179\x12\x00\x00\x00'
p2198
tp2199
Rp2200
sg21
(lp2201
VTHR
p2202
asba(iTweetDB
Tweet
p2203
(dp2204
g6
g294
sg8
S'180178274'
p2205
sg10
(lp2206
S'DonaldTrump'
p2207
aS'GoldenGlobes'
p2208
aS'MerylStreep'
p2209
asg14
S'Donald Trump reminds me of the little engine that could....he needs to get off Twitter and STFU #DonaldTrump  #GoldenGlobes #MerylStreep'
p2210
sg16
g17
(S'\x07\xe1\x01\t\x179\x11\x00\x00\x00'
p2211
tp2212
Rp2213
sg21
(lp2214
sba(iTweetDB
Tweet
p2215
(dp2216
g6
S'Chantelita'
p2217
sg8
S'2611191211'
p2218
sg10
(lp2219
VMerylStreep
p2220
aVGoldenGlobes
p2221
asg14
S'RT @BEautifully_C: When #MerylStreep is reading Trump for filth at the #GoldenGlobes &amp; you voted for him https://t.co/72R9H5rCZE'
p2222
sg16
g17
(S'\x07\xe1\x01\t\x179\x10\x00\x00\x00'
p2223
tp2224
Rp2225
sg21
(lp2226
VBEautifully_C
p2227
asba(iTweetDB
Tweet
p2228
(dp2229
g6
S'Arwen Smith'
p2230
sg8
S'24784857'
p2231
sg10
(lp2232
VGoldenGlobes
p2233
asg14
S"My 2 absolute faves - my acting inspirations &amp; comedy muses. Fave moment of this year's #GoldenGlobes! @SteveCarell https://t.co/9X6q2e6MQD"
p2234
sg16
g17
(S'\x07\xe1\x01\t\x179\x0f\x00\x00\x00'
p2235
tp2236
Rp2237
sg21
(lp2238
VSteveCarell
p2239
asba(iTweetDB
Tweet
p2240
(dp2241
g6
S"Nerd's World"
p2242
sg8
S'3074021210'
p2243
sg10
(lp2244
Vdonaldglover
p2245
aVgoldenglobes
p2246
aVlando
p2247
aVstarwars
p2248
asg14
S'https://t.co/98PUnuaOnp Donald Glover on tackling the role of Lando in Hans Solo movie. #donaldglover #goldenglobes #lando #starwars'
p2249
sg16
g17
(S'\x07\xe1\x01\t\x179\r\x00\x00\x00'
p2250
tp2251
Rp2252
sg21
(lp2253
sba(iTweetDB
Tweet
p2254
(dp2255
g6
S'Monse Cruz'
p2256
sg8
S'1708312670'
p2257
sg10
(lp2258
sg14
S'RT @goldenglobes: .@twhiddleston wins Best Performance by an Actor in a Limited Series or a Motion Picture Made For Television! Congrats! #'
p2259
sg16
g17
(S'\x07\xe1\x01\t\x179\r\x00\x00\x00'
p2260
tp2261
Rp2262
sg21
(lp2263
S'goldenglobes'
p2264
aS'twhiddleston'
p2265
asba(iTweetDB
Tweet
p2266
(dp2267
g6
S'Michael Means'
p2268
sg8
S'3078899252'
p2269
sg10
(lp2270
VMerylStreep
p2271
aVTrump
p2272
aVMAGA
p2273
aVGOP
p2274
aVGoldenGlobes
p2275
asg14
S'RT @ScottErnst0331: POLL: Is #MerylStreep an obnoxious turd?  #Trump #MAGA #GOP #GoldenGlobes'
p2276
sg16
g17
(S'\x07\xe1\x01\t\x179\x0c\x00\x00\x00'
p2277
tp2278
Rp2279
sg21
(lp2280
S'ScottErnst0331'
p2281
asba(iTweetDB
Tweet
p2282
(dp2283
g6
S'Paige Duly'
p2284
sg8
S'928709468'
p2285
sg10
(lp2286
VGoldenGlobes
p2287
asg14
S'RT @TheCrownNetflix: "I think the world could do with a few more women at the centre of it" - Claire Foy. #GoldenGlobes https://t.co/NCDRc4'
p2288
sg16
g17
(S'\x07\xe1\x01\t\x179\x0c\x00\x00\x00'
p2289
tp2290
Rp2291
sg21
(lp2292
VTheCrownNetflix
p2293
asba(iTweetDB
Tweet
p2294
(dp2295
g6
S'S.D.E.A.B.J'
p2296
sg8
S'3705226813'
p2297
sg10
(lp2298
VGoldenGlobes
p2299
asg14
S'RT @thehill: WATCH: Meryl Streep denounces Trump in emotional #GoldenGlobes speech https://t.co/JP4TL5teH3 https://t.co/HS4oqUY388'
p2300
sg16
g17
(S'\x07\xe1\x01\t\x179\x0b\x00\x00\x00'
p2301
tp2302
Rp2303
sg21
(lp2304
Vthehill
p2305
asba(iTweetDB
Tweet
p2306
(dp2307
g6
S'** AMERICA FIRST **'
p2308
sg8
S'3750897171'
p2309
sg10
(lp2310
S'GoldenGlobes'
p2311
asg14
S'RT larryelder: "The True Story: Donald Trump Did NOT Mock A Reporter\'s Disability"https://t.co/1ExyEZKtMS#MerylStreep #GoldenGlobes'
p2312
sg16
g17
(S'\x07\xe1\x01\t\x179\t\x00\x00\x00'
p2313
tp2314
Rp2315
sg21
(lp2316
sba(iTweetDB
Tweet
p2317
(dp2318
g6
S'ANTOANETA GLAMBERT'
p2319
sg8
S'754705788627775488'
p2320
sg10
(lp2321
VTrump
p2322
aVTrumpleaks
p2323
aVtheresistance
p2324
aVgoldenglobes
p2325
asg14
S"RT @funder: Photos:#Trump was 'awarded' $400,000 car from Joey 'no socks' Cinque's org-7 yrs ago #Trumpleaks #theresistance #goldenglobes #"
p2326
sg16
g17
(S'\x07\xe1\x01\t\x179\x08\x00\x00\x00'
p2327
tp2328
Rp2329
sg21
(lp2330
S'funder'
p2331
asba(iTweetDB
Tweet
p2332
(dp2333
g6
S'absrdNEWS'
p2334
sg8
S'2352650977'
p2335
sg10
(lp2336
VGoldenGlobes
p2337
asg14
S"RT @mesealake: Meryl Streep's #GoldenGlobes performance was her best performance since the last thing she protested. @absrdNEWS"
p2338
sg16
g17
(S'\x07\xe1\x01\t\x179\x07\x00\x00\x00'
p2339
tp2340
Rp2341
sg21
(lp2342
S'mesealake'
p2343
aS'absrdNEWS'
p2344
asba(iTweetDB
Tweet
p2345
(dp2346
g6
S'(deplorable)NittiMom'
p2347
sg8
S'1935871722'
p2348
sg10
(lp2349
VGoldenGlobes
p2350
asg14
S'RT @JoshNoneYaBiz: Meryl Streep, how did bullying Trump supporters work out for Hillary? #GoldenGlobes https://t.co/r1EyUvwt3l'
p2351
sg16
g17
(S'\x07\xe1\x01\t\x179\x06\x00\x00\x00'
p2352
tp2353
Rp2354
sg21
(lp2355
VJoshNoneYaBiz
p2356
asba(iTweetDB
Tweet
p2357
(dp2358
g6
S'H A B I B A H  '
p2359
sg8
S'2345334995'
p2360
sg10
(lp2361
VEmmaStone
p2362
aVGoldenGlobes
p2363
asg14
S'RT @people: #EmmaStone gives a moving speech after winning best actress https://t.co/VlS9RuMOtz  #GoldenGlobes https://t.co/HpULBCxDVQ'
p2364
sg16
g17
(S'\x07\xe1\x01\t\x179\x04\x00\x00\x00'
p2365
tp2366
Rp2367
sg21
(lp2368
Vpeople
p2369
asba(iTweetDB
Tweet
p2370
(dp2371
g6
S'Amway WHQ'
p2372
sg8
S'20120693'
p2373
sg10
(lp2374
VArtistry
p2375
aVGoldenGlobes
p2376
asg14
S'#Artistry Global Face @teresapalmer rocked  the red carpet at the #GoldenGlobes wearing Artistry Signature Color Li https://t.co/MFjtifOEWk'
p2377
sg16
g17
(S'\x07\xe1\x01\t\x179\x04\x00\x00\x00'
p2378
tp2379
Rp2380
sg21
(lp2381
Vteresapalmer
p2382
asba(iTweetDB
Tweet
p2383
(dp2384
g6
S'CynthiaOnTheSEA'
p2385
sg8
S'785916389529821185'
p2386
sg10
(lp2387
VMerylStreep
p2388
asg14
S'RT @larryelder: No, #MerylStreep, Trump criticized "a disabled reporter" for retracting a story--NOT FOR A DISABILITY:https://t.co/d2PraNG'
p2389
sg16
g17
(S'\x07\xe1\x01\t\x179\x04\x00\x00\x00'
p2390
tp2391
Rp2392
sg21
(lp2393
Vlarryelder
p2394
asba(iTweetDB
Tweet
p2395
(dp2396
g6
S'Norwich Pride'
p2397
sg8
S'28381314'
p2398
sg10
(lp2399
VGoldenGlobes
p2400
asg14
S'RT @GayTimesMag: Groundbreaking LGBT+ film Moonlight wins best drama at the #GoldenGlobes.https://t.co/Ua016pkwqF https://t.co/Nca70Bdm8R'
p2401
sg16
g17
(S'\x07\xe1\x01\t\x179\x04\x00\x00\x00'
p2402
tp2403
Rp2404
sg21
(lp2405
VGayTimesMag
p2406
asba(iTweetDB
Tweet
p2407
(dp2408
g6
S'G_G'
p2409
sg8
S'35291387'
p2410
sg10
(lp2411
VMerylStre
p2412
asg14
S"RT @SoCal4Trump: Here is proof Trump DID NOT make fun of someone's disability. He makes funny hand gestures ALL THE TIME! Watch:#MerylStre"
p2413
sg16
g17
(S'\x07\xe1\x01\t\x179\x03\x00\x00\x00'
p2414
tp2415
Rp2416
sg21
(lp2417
S'SoCal4Trump'
p2418
asba(iTweetDB
Tweet
p2419
(dp2420
g6
S'CYNTHIA'
p2421
sg8
S'342975910'
p2422
sg10
(lp2423
VGoldenGlobes
p2424
asg14
S'RT @goldenglobes: And Best Performance by an Actress in a Television Series - Musical or Comedy goes to @TraceeEllisRoss! #GoldenGlobes htt'
p2425
sg16
g17
(S'\x07\xe1\x01\t\x179\x01\x00\x00\x00'
p2426
tp2427
Rp2428
sg21
(lp2429
S'goldenglobes'
p2430
aS'TraceeEllisRoss'
p2431
asba(iTweetDB
Tweet
p2432
(dp2433
g6
S'Clinton Sanni'
p2434
sg8
S'1357889700'
p2435
sg10
(lp2436
sg14
S'RT @MarleeMatlin: Wonderful to see a touching and moving story, diverse and truthful, win the @goldenglobes for Best Picture, Drama. Congra'
p2437
sg16
g17
(S'\x07\xe1\x01\t\x178:\x00\x00\x00'
p2438
tp2439
Rp2440
sg21
(lp2441
S'MarleeMatlin'
p2442
aS'goldenglobes'
p2443
asba(iTweetDB
Tweet
p2444
(dp2445
g6
S'mike fry'
p2446
sg8
S'1242553166'
p2447
sg10
(lp2448
sg14
S'@goldenglobes @IssaRae didnt watch, boring overrated. Did catch streeps rant. To bad i dont agree with these assholes ability to use'
p2449
sg16
g17
(S'\x07\xe1\x01\t\x1789\x00\x00\x00'
p2450
tp2451
Rp2452
sg21
(lp2453
S'goldenglobes'
p2454
aS'IssaRae'
p2455
asba(iTweetDB
Tweet
p2456
(dp2457
g6
S'Donna@ramseyturbo'
p2458
sg8
S'758276525649195008'
p2459
sg10
(lp2460
sg14
S"RT @CrystalSustaire: @goldenglobes @donaldglover I didn't even watch &amp; I'm disappointed.Do what ur paid to do act.Don't use award ceremon"
p2461
sg16
g17
(S'\x07\xe1\x01\t\x1786\x00\x00\x00'
p2462
tp2463
Rp2464
sg21
(lp2465
S'CrystalSustaire'
p2466
aS'goldenglobes'
p2467
aS'donaldglover'
p2468
asba(iTweetDB
Tweet
p2469
(dp2470
g6
S' Pc'
p2471
sg8
S'746828578633953281'
p2472
sg10
(lp2473
VetalkGlobes
p2474
aVGoldenGlo
p2475
asg14
S"RT @etalkCTV: WATCH: @priyankachopra reveals the inspiration behind her 'golden' outfit &gt;&gt;&gt; https://t.co/QtkpLMtd4y #etalkGlobes #GoldenGlo"
p2476
sg16
g17
(S'\x07\xe1\x01\t\x1783\x00\x00\x00'
p2477
tp2478
Rp2479
sg21
(lp2480
VetalkCTV
p2481
aVpriyankachopra
p2482
asba(iTweetDB
Tweet
p2483
(dp2484
g6
S'StreamGloryDays'
p2485
sg8
S'67397655'
p2486
sg10
(lp2487
VGoldenGlobesred
p2488
asg14
S'RT @PopCrave: Lily Collins looking gorgeous in pink at the #GoldenGlobesred carpet. https://t.co/Ue65tq6Q27'
p2489
sg16
g17
(S'\x07\xe1\x01\t\x1783\x00\x00\x00'
p2490
tp2491
Rp2492
sg21
(lp2493
VPopCrave
p2494
asba(iTweetDB
Tweet
p2495
(dp2496
g6
S'Matt Mercado'
p2497
sg8
S'65397168'
p2498
sg10
(lp2499
VGoldenGlobes
p2500
aVMerylStreep
p2501
asg14
S"@realDonaldTrump I hope you're really listening to what these people are saying...#GoldenGlobes #MerylStreep https://t.co/V7ucAiYkyE"
p2502
sg16
g17
(S'\x07\xe1\x01\t\x1782\x00\x00\x00'
p2503
tp2504
Rp2505
sg21
(lp2506
VrealDonaldTrump
p2507
asba(iTweetDB
Tweet
p2508
(dp2509
g6
S'laus'
p2510
sg8
S'105211156'
p2511
sg10
(lp2512
sg14
S'RT @goldenglobes: What a night for @hughlaurie! He won Best Performance by an Actor in a Supporting Role in a Television Series or TV Movie'
p2513
sg16
g17
(S'\x07\xe1\x01\t\x1781\x00\x00\x00'
p2514
tp2515
Rp2516
sg21
(lp2517
S'goldenglobes'
p2518
aS'hughlaurie'
p2519
asba(iTweetDB
Tweet
p2520
(dp2521
g6
S'Rosa Del Vecchio'
p2522
sg8
S'2604385664'
p2523
sg10
(lp2524
VGoldenGlobes
p2525
asg14
S'RT @goldenglobes: Casey Affleck shares how he feels after that #GoldenGlobes win for Best Actor in a Motion Picture - Drama! https://t.co/z'
p2526
sg16
g17
(S'\x07\xe1\x01\t\x1780\x00\x00\x00'
p2527
tp2528
Rp2529
sg21
(lp2530
Vgoldenglobes
p2531
asba(iTweetDB
Tweet
p2532
(dp2533
g6
S'Nancy'
p2534
sg8
S'168846980'
p2535
sg10
(lp2536
VTheNightManager
p2537
asg14
S'RT @Hiddles_Page: Tom Hiddleston Wins The Golden Globe Award for Best Actor in a Limited Series for #TheNightManager - Acceptance speech.'
p2538
sg16
g17
(S'\x07\xe1\x01\t\x1780\x00\x00\x00'
p2539
tp2540
Rp2541
sg21
(lp2542
S'Hiddles_Page'
p2543
asba(iTweetDB
Tweet
p2544
(dp2545
g6
S'Judy L'
p2546
sg8
S'37337452'
p2547
sg10
(lp2548
VGoldenGlobes
p2549
asg14
S'RT @TheMattWilstein: Meryl Streep is a goddamn national hero: https://t.co/91q0YuIcYR #GoldenGlobes https://t.co/P6ZPsDcelp'
p2550
sg16
g17
(S'\x07\xe1\x01\t\x178/\x00\x00\x00'
p2551
tp2552
Rp2553
sg21
(lp2554
VTheMattWilstein
p2555
asba(iTweetDB
Tweet
p2556
(dp2557
g6
S'DP4656 :) MAGA(:'
p2558
sg8
S'740737373496049664'
p2559
sg10
(lp2560
VGoldenGlobes
p2561
asg14
S"RT @Cernovich: If Trump leads a boycott against Hollywood, it's over for them. That's how much influence he has now. #GoldenGlobes"
p2562
sg16
g17
(S'\x07\xe1\x01\t\x178/\x00\x00\x00'
p2563
tp2564
Rp2565
sg21
(lp2566
S'Cernovich'
p2567
asba(iTweetDB
Tweet
p2568
(dp2569
g6
S'Rome 2.0'
p2570
sg8
S'134978456'
p2571
sg10
(lp2572
VGoldenGlobes
p2573
asg14
S"RT @libertytarian: Streep's #GoldenGlobes Exposed As FraudPhony award, phony outrage over phony story about @realDonaldTrumphttps://t.c"
p2574
sg16
g17
(S'\x07\xe1\x01\t\x178-\x00\x00\x00'
p2575
tp2576
Rp2577
sg21
(lp2578
S'libertytarian'
p2579
aS'realDonaldTrumphttps'
p2580
asba(iTweetDB
Tweet
p2581
(dp2582
g6
S'Nancy'
p2583
sg8
S'168846980'
p2584
sg10
(lp2585
VTheNightManager
p2586
asg14
S'RT @Hiddles_Page: Tom Hiddleston Wins The Golden Globe Award for Best Actor in a Limited Series for #TheNightManager - Backstage Interview.'
p2587
sg16
g17
(S'\x07\xe1\x01\t\x178,\x00\x00\x00'
p2588
tp2589
Rp2590
sg21
(lp2591
S'Hiddles_Page'
p2592
asba(iTweetDB
Tweet
p2593
(dp2594
g6
S'Apsara Naomi Perera'
p2595
sg8
S'2359156190'
p2596
sg10
(lp2597
VMerylStreep
p2598
aVGoldenGlobes
p2599
asg14
S'RT @sophiapaik: The irony when Trump supporters are mad a celebrity talked about politics. #MerylStreep #GoldenGlobes'
p2600
sg16
g17
(S'\x07\xe1\x01\t\x178+\x00\x00\x00'
p2601
tp2602
Rp2603
sg21
(lp2604
S'sophiapaik'
p2605
asba(iTweetDB
Tweet
p2606
(dp2607
g6
S'Lynette Cornell'
p2608
sg8
S'76133243'
p2609
sg10
(lp2610
VGoldenGlobes
p2611
asg14
S"RT @DailyMail: .@piersmorgan was not as enamoured with Meryl Streep's #GoldenGlobes speech as everyone else https://t.co/9ORRswXaCv https:/"
p2612
sg16
g17
(S'\x07\xe1\x01\t\x178+\x00\x00\x00'
p2613
tp2614
Rp2615
sg21
(lp2616
VDailyMail
p2617
aVpiersmorgan
p2618
asba(iTweetDB
Tweet
p2619
(dp2620
g6
S'\\_()_/'
p2621
sg8
S'29807533'
p2622
sg10
(lp2623
Vgoldenglobes
p2624
asg14
S'RT @Genius: .@donaldglover real af for shouting out @migos in his #goldenglobes acceptance speechwatch here: https://t.co/eNtJ9mT50B http'
p2625
sg16
g17
(S'\x07\xe1\x01\t\x178)\x00\x00\x00'
p2626
tp2627
Rp2628
sg21
(lp2629
VGenius
p2630
aVdonaldglover
p2631
aVmigos
p2632
asba(iTweetDB
Tweet
p2633
(dp2634
g6
S'@deplorableguy49'
p2635
sg8
S'757689964482142208'
p2636
sg10
(lp2637
sg14
S"RT @SheldonCoraRoth: @DiamondandSilk @MerylStreepPage @goldenglobes @realDonaldTrump Let us hope millions of people DIDN'T watch. Our best"
p2638
sg16
g17
(S'\x07\xe1\x01\t\x178)\x00\x00\x00'
p2639
tp2640
Rp2641
sg21
(lp2642
S'SheldonCoraRoth'
p2643
aS'DiamondandSilk'
p2644
aS'MerylStreepPage'
p2645
aS'goldenglobes'
p2646
aS'realDonaldTrump'
p2647
asba(iTweetDB
Tweet
p2648
(dp2649
g6
S'Karen'
p2650
sg8
S'701460781548883968'
p2651
sg10
(lp2652
VMerylStreep
p2653
asg14
S'RT @WayneDupreeShow: No. she looks more like illegal immigrant supporter who would choose them over hard-working Americans.#MerylStreep #'
p2654
sg16
g17
(S'\x07\xe1\x01\t\x178"\x00\x00\x00'
p2655
tp2656
Rp2657
sg21
(lp2658
S'WayneDupreeShow'
p2659
asba(iTweetDB
Tweet
p2660
(dp2661
g6
S'Louvois'
p2662
sg8
S'2448000006'
p2663
sg10
(lp2664
VGoldenGlobes
p2665
asg14
S"RT @Fashionista_com: Rapper, singer, producer, writer and now STYLE ICON. What can't Donald Glover do? #GoldenGlobes https://t.co/yovZU8JrO"
p2666
sg16
g17
(S'\x07\xe1\x01\t\x178 \x00\x00\x00'
p2667
tp2668
Rp2669
sg21
(lp2670
VFashionista_com
p2671
asba(iTweetDB
Tweet
p2672
(dp2673
g6
S'Tshirtz'
p2674
sg8
S'614953446'
p2675
sg10
(lp2676
VGoldenGlobes
p2677
asg14
S'RT @VanityFair: Photos: The 2017 #GoldenGlobes best-dressed celebrities https://t.co/0pXyYFacVU https://t.co/YCiZ2j9xkV'
p2678
sg16
g17
(S'\x07\xe1\x01\t\x178 \x00\x00\x00'
p2679
tp2680
Rp2681
sg21
(lp2682
VVanityFair
p2683
asba(iTweetDB
Tweet
p2684
(dp2685
g6
S'Kim Fulton'
p2686
sg8
S'427183263'
p2687
sg10
(lp2688
VMerylStreep
p2689
aVTrump
p2690
aVGoldenGlobes
p2691
asg14
S'RT @workhousepr: This is what a freedom fighter looks like. #MerylStreep #Trump #GoldenGlobes @goldenglobes @realDonaldTrump https://t.co/p'
p2692
sg16
g17
(S'\x07\xe1\x01\t\x178\x1e\x00\x00\x00'
p2693
tp2694
Rp2695
sg21
(lp2696
Vworkhousepr
p2697
aVgoldenglobes
p2698
aVrealDonaldTrump
p2699
asba(iTweetDB
Tweet
p2700
(dp2701
g6
S'Janet Kerrigan'
p2702
sg8
S'785653594515046400'
p2703
sg10
(lp2704
VTrumps
p2705
aVtrumpleaks
p2706
aVtheresistance
p2707
aVmerylstreep
p2708
aVgoldenglobes
p2709
asg14
S'RT @funder: The Case for #Trumps Impeachability-a @BrookingsInst Report #trumpleaks #theresistance #merylstreep #goldenglobeshttps://t.co'
p2710
sg16
g17
(S'\x07\xe1\x01\t\x178\x1e\x00\x00\x00'
p2711
tp2712
Rp2713
sg21
(lp2714
Vfunder
p2715
aVBrookingsInst
p2716
asba(iTweetDB
Tweet
p2717
(dp2718
g6
S"Nick O'Neill"
p2719
sg8
S'435699785'
p2720
sg10
(lp2721
Vslowlearners
p2722
aVGoldenGlobes
p2723
asg14
S'RT @RitaPanahi: Anti-Trump media types breathlessly praising the grandstanding of anti-Trump Hollywood types. #slowlearners #GoldenGlobes'
p2724
sg16
g17
(S'\x07\xe1\x01\t\x178\x1d\x00\x00\x00'
p2725
tp2726
Rp2727
sg21
(lp2728
S'RitaPanahi'
p2729
asba(iTweetDB
Tweet
p2730
(dp2731
g6
S'Mariano Gil'
p2732
sg8
S'817566167372091393'
p2733
sg10
(lp2734
VIndivisible
p2735
aVMerylStreep
p2736
aVGoldenGlobesIf
p2737
asg14
S"RT @IMPL0RABLE: #Indivisible #MerylStreep #GoldenGlobesIf you're unfamiliar with the incident Meryl Streep referenced, here it is:https:"
p2738
sg16
g17
(S'\x07\xe1\x01\t\x178\x1c\x00\x00\x00'
p2739
tp2740
Rp2741
sg21
(lp2742
S'IMPL0RABLE'
p2743
asba(iTweetDB
Tweet
p2744
(dp2745
g6
S'Brendan'
p2746
sg8
S'2918712479'
p2747
sg10
(lp2748
VGoldenGlobes
p2749
asg14
S'RT @Variety: Donald Glover comments on current events, "I think a lot of the s*** that\'s happening now is b*******." #GoldenGlobes https://'
p2750
sg16
g17
(S'\x07\xe1\x01\t\x178\x1b\x00\x00\x00'
p2751
tp2752
Rp2753
sg21
(lp2754
S'Variety'
p2755
asba(iTweetDB
Tweet
p2756
(dp2757
g6
S'Ranem'
p2758
sg8
S'2996556368'
p2759
sg10
(lp2760
VGoldenGlobes
p2761
asg14
S'RT @THR: Meryl Streep: "When the powerful use their position to bully others, we all lose" https://t.co/P8j4hbb8RL #GoldenGlobes https://t.'
p2762
sg16
g17
(S'\x07\xe1\x01\t\x178\x1a\x00\x00\x00'
p2763
tp2764
Rp2765
sg21
(lp2766
VTHR
p2767
asba(iTweetDB
Tweet
p2768
(dp2769
g6
S'Blomskibeat'
p2770
sg8
S'582704893'
p2771
sg10
(lp2772
VGoldenGlobes
p2773
asg14
S"RT @notsam: Chip pays tribute to Carrie Fisher as we watch Meryl Streep's #GoldenGlobes speech on @jimandsamshow - WATCH: https://t.co/RGNX"
p2774
sg16
g17
(S'\x07\xe1\x01\t\x178\x19\x00\x00\x00'
p2775
tp2776
Rp2777
sg21
(lp2778
Vnotsam
p2779
aVjimandsamshow
p2780
asba(iTweetDB
Tweet
p2781
(dp2782
g6
S'Moumou'
p2783
sg8
S'62853998'
p2784
sg10
(lp2785
VGoldenGlobes
p2786
asg14
S"RT @Variety: What's the most UN-glamorous part about being an actor? We asked nominee Tom Hiddleston (@twhiddleston) #GoldenGlobes https://"
p2787
sg16
g17
(S'\x07\xe1\x01\t\x178\x17\x00\x00\x00'
p2788
tp2789
Rp2790
sg21
(lp2791
S'Variety'
p2792
aS'twhiddleston'
p2793
asba(iTweetDB
Tweet
p2794
(dp2795
g6
S'Margaret Rogers'
p2796
sg8
S'705097012736200704'
p2797
sg10
(lp2798
Vtrump
p2799
aVmaga
p2800
aVameri
p2801
asg14
S'RT @realjunsonchan: Hollywood, like Michael Moore, hates Americans &amp; the idea ordinary folks can make their dreams work.#trump #maga #ameri'
p2802
sg16
g17
(S'\x07\xe1\x01\t\x178\x16\x00\x00\x00'
p2803
tp2804
Rp2805
sg21
(lp2806
S'realjunsonchan'
p2807
asba(iTweetDB
Tweet
p2808
(dp2809
g6
S'Beau Thornock'
p2810
sg8
S'3184827829'
p2811
sg10
(lp2812
S'MerylStreep'
p2813
aS'thebest'
p2814
asg14
S'Do you think that there will be school tomorrow#GoldenGlobes #MerylStreep #thebest'
p2815
sg16
g17
(S'\x07\xe1\x01\t\x178\x15\x00\x00\x00'
p2816
tp2817
Rp2818
sg21
(lp2819
sba(iTweetDB
Tweet
p2820
(dp2821
g6
S'Charles Wise'
p2822
sg8
S'246676814'
p2823
sg10
(lp2824
VGoldenGlobes
p2825
asg14
S"RT @DailyMail: .@piersmorgan was not as enamoured with Meryl Streep's #GoldenGlobes speech as everyone else https://t.co/Xzw4wQSLVF https:/"
p2826
sg16
g17
(S'\x07\xe1\x01\t\x178\x15\x00\x00\x00'
p2827
tp2828
Rp2829
sg21
(lp2830
VDailyMail
p2831
aVpiersmorgan
p2832
asba(iTweetDB
Tweet
p2833
(dp2834
g6
S'Chris Bierman'
p2835
sg8
S'453692586'
p2836
sg10
(lp2837
Vgoldenglobes
p2838
asg14
S'RT @HuntsmanAbby: No #goldenglobes for me last night. Stuck with football. Sounds like it was the best decision yet of 2017!! https://t.co/'
p2839
sg16
g17
(S'\x07\xe1\x01\t\x178\x10\x00\x00\x00'
p2840
tp2841
Rp2842
sg21
(lp2843
VHuntsmanAbby
p2844
asba(iTweetDB
Tweet
p2845
(dp2846
g6
S'B D Walker'
p2847
sg8
S'738250782886133760'
p2848
sg10
(lp2849
VGoldenGlo
p2850
asg14
S'RT @WEdwarda: The face you make when you think your at an awards show but it turns out to be the Democratic National Convention.#GoldenGlo'
p2851
sg16
g17
(S'\x07\xe1\x01\t\x178\x10\x00\x00\x00'
p2852
tp2853
Rp2854
sg21
(lp2855
S'WEdwarda'
p2856
asba(iTweetDB
Tweet
p2857
(dp2858
g6
S'penblade1'
p2859
sg8
S'16230767'
p2860
sg10
(lp2861
VGoldenGlobes
p2862
asg14
S"RT @latimes: Lots of response to Meryl Streep's #GoldenGlobes speech. Do you think Hollywood has lost touch with American values? https://t"
p2863
sg16
g17
(S'\x07\xe1\x01\t\x178\x10\x00\x00\x00'
p2864
tp2865
Rp2866
sg21
(lp2867
S'latimes'
p2868
asba(iTweetDB
Tweet
p2869
(dp2870
g6
S'Veronica Gliatti'
p2871
sg8
S'859116272'
p2872
sg10
(lp2873
S'MerylStreep'
p2874
aS'GoldenGlobes'
p2875
asg14
S"I'm sure Trump's opinion of #MerylStreep just broke her heart and took away her joy at winning her #GoldenGlobes"
p2876
sg16
g17
(S'\x07\xe1\x01\t\x178\x0e\x00\x00\x00'
p2877
tp2878
Rp2879
sg21
(lp2880
sba(iTweetDB
Tweet
p2881
(dp2882
g6
S'Luca Milanese'
p2883
sg8
S'2386163494'
p2884
sg10
(lp2885
VGoldenGlobes
p2886
asg14
S'RT @goldenglobes: Emma Stone is here on the #GoldenGlobes Red Carpet! See more as the stars arrive on our live stream at https://t.co/XSFLt'
p2887
sg16
g17
(S'\x07\xe1\x01\t\x178\x0e\x00\x00\x00'
p2888
tp2889
Rp2890
sg21
(lp2891
Vgoldenglobes
p2892
asba(iTweetDB
Tweet
p2893
(dp2894
g6
S'Ish'
p2895
sg8
S'3271341415'
p2896
sg10
(lp2897
VGoldenGlobes
p2898
asg14
S'RT @thefader: Watch @donaldglover turn up to @Migos\'s "Bad and Boujee" after the #GoldenGlobes. https://t.co/20SXDCEoNo https://t.co/np3tcH'
p2899
sg16
g17
(S'\x07\xe1\x01\t\x178\x0b\x00\x00\x00'
p2900
tp2901
Rp2902
sg21
(lp2903
Vthefader
p2904
aVdonaldglover
p2905
aVMigos
p2906
asba(iTweetDB
Tweet
p2907
(dp2908
g6
S'Dustin Burton'
p2909
sg8
S'25614235'
p2910
sg10
(lp2911
VGoldenGlobes
p2912
asg14
S"RT @TylerDuvelius: .@MeghanMcCain is spot-on. Streep's speech at the #GoldenGlobes is why @realDonaldTrump won &amp; it only fuels the fire htt"
p2913
sg16
g17
(S'\x07\xe1\x01\t\x178\n\x00\x00\x00'
p2914
tp2915
Rp2916
sg21
(lp2917
S'TylerDuvelius'
p2918
aS'MeghanMcCain'
p2919
aS'realDonaldTrump'
p2920
asba(iTweetDB
Tweet
p2921
(dp2922
g6
S'Pat Firment'
p2923
sg8
S'47016814'
p2924
sg10
(lp2925
VGoldenGlobes
p2926
asg14
S'Meryl Streep goes after Donald Trump in powerful #GoldenGlobes speech https://t.co/mCvYNsuYlr via @HuffPostEnt'
p2927
sg16
g17
(S'\x07\xe1\x01\t\x178\x08\x00\x00\x00'
p2928
tp2929
Rp2930
sg21
(lp2931
VHuffPostEnt
p2932
asba(iTweetDB
Tweet
p2933
(dp2934
g6
S'S H'
p2935
sg8
S'3253872859'
p2936
sg10
(lp2937
VMoonlight
p2938
aVGoldenGlobes
p2939
asg14
S'RT @CNN: #Moonlight wins Best Motion Picture - Drama. #GoldenGlobes https://t.co/rgaLQLwD21 https://t.co/zyVhrIhXsy'
p2940
sg16
g17
(S'\x07\xe1\x01\t\x178\x04\x00\x00\x00'
p2941
tp2942
Rp2943
sg21
(lp2944
VCNN
p2945
asba(iTweetDB
Tweet
p2946
(dp2947
g6
S'Marjorie Binder'
p2948
sg8
S'415096620'
p2949
sg10
(lp2950
VGillianAnderson
p2951
aVGoldenGlobesred
p2952
asg14
S"RT @VIPmagaz: We still can't get over the ending of @TheFallTV! #GillianAnderson looks radiant on the #GoldenGlobesred carpet tonight  "
p2953
sg16
g17
(S'\x07\xe1\x01\t\x178\x04\x00\x00\x00'
p2954
tp2955
Rp2956
sg21
(lp2957
S'VIPmagaz'
p2958
aS'TheFallTV'
p2959
asba(iTweetDB
Tweet
p2960
(dp2961
g6
S'William Dechert'
p2962
sg8
S'3385044495'
p2963
sg10
(lp2964
VMerylStreep
p2965
aVGoldenGlobes
p2966
asg14
S'RT @PrimoPolls: What do you think of the #MerylStreep anti-Trump speech at #GoldenGlobes?'
p2967
sg16
g17
(S'\x07\xe1\x01\t\x178\x04\x00\x00\x00'
p2968
tp2969
Rp2970
sg21
(lp2971
S'PrimoPolls'
p2972
asba(iTweetDB
Tweet
p2973
(dp2974
g6
S'Frankie L.'
p2975
sg8
S'610201069'
p2976
sg10
(lp2977
sg14
S"@triciaonkiss @EmmaStoneWeb @goldenglobes I didn't watch it. Now, I should've."
p2978
sg16
g17
(S'\x07\xe1\x01\t\x178\x04\x00\x00\x00'
p2979
tp2980
Rp2981
sg21
(lp2982
S'triciaonkiss'
p2983
aS'EmmaStoneWeb'
p2984
aS'goldenglobes'
p2985
asba(iTweetDB
Tweet
p2986
(dp2987
g6
S'instantdotme'
p2988
sg8
S'737713205246627840'
p2989
sg10
(lp2990
VGoldenGlobes
p2991
asg14
S"ICYMI: @LizaKoshy hosted Twitter's red carpet extravaganza for the #GoldenGlobes and she straight KILLED IT.  https://t.co/05PKshOV6v"
p2992
sg16
g17
(S'\x07\xe1\x01\t\x178\x02\x00\x00\x00'
p2993
tp2994
Rp2995
sg21
(lp2996
VLizaKoshy
p2997
asba(iTweetDB
Tweet
p2998
(dp2999
g6
S'Leejay Robinson'
p3000
sg8
S'114050134'
p3001
sg10
(lp3002
VGoldenGlobes
p3003
asg14
S'RT @XavierWoodsPhD: Best thing about the #GoldenGlobes was @donaldglover winning and then thanking @Migos for making "bad and boujee"'
p3004
sg16
g17
(S'\x07\xe1\x01\t\x178\x02\x00\x00\x00'
p3005
tp3006
Rp3007
sg21
(lp3008
S'XavierWoodsPhD'
p3009
aS'donaldglover'
p3010
aS'Migos'
p3011
asba(iTweetDB
Tweet
p3012
(dp3013
g6
S'Luca Milanese'
p3014
sg8
S'2386163494'
p3015
sg10
(lp3016
VGoldenGlobes
p3017
asg14
S'RT @goldenglobes: We have your first look at @SophieT on the #GoldenGlobes Red Carpet! She looks amazing. https://t.co/0rZIQMnkTq'
p3018
sg16
g17
(S'\x07\xe1\x01\t\x178\x01\x00\x00\x00'
p3019
tp3020
Rp3021
sg21
(lp3022
Vgoldenglobes
p3023
aVSophieT
p3024
asba(iTweetDB
Tweet
p3025
(dp3026
g6
S'Tom Skipper'
p3027
sg8
S'233828262'
p3028
sg10
(lp3029
VGoldenGlobes
p3030
asg14
S'RT @Conservative_VW: #GoldenGlobes is like Obama giving himself a medalpompous asses that give medals to themselves because they think th'
p3031
sg16
g17
(S'\x07\xe1\x01\t\x178\x01\x00\x00\x00'
p3032
tp3033
Rp3034
sg21
(lp3035
S'Conservative_VW'
p3036
asba(iTweetDB
Tweet
p3037
(dp3038
g6
S'Amanda Jones'
p3039
sg8
S'498000822'
p3040
sg10
(lp3041
VGoldenGlobes
p3042
asg14
S'RT @HerCampus: The 10 best-dressed couples on the #GoldenGlobes red carpet: https://t.co/Hy8EpjqzQY https://t.co/0QLurmQ7Y6'
p3043
sg16
g17
(S'\x07\xe1\x01\t\x177;\x00\x00\x00'
p3044
tp3045
Rp3046
sg21
(lp3047
VHerCampus
p3048
asba(iTweetDB
Tweet
p3049
(dp3050
g6
S'Scarlett Harris'
p3051
sg8
S'1332877027'
p3052
sg10
(lp3053
VGoldenGlobes
p3054
asg14
S'This is why Viola David was nominated for - and won! - Best Supporting Actress at the #GoldenGlobes https://t.co/KVAwWTqF0d via @fusion'
p3055
sg16
g17
(S'\x07\xe1\x01\t\x1778\x00\x00\x00'
p3056
tp3057
Rp3058
sg21
(lp3059
Vfusion
p3060
asba(iTweetDB
Tweet
p3061
(dp3062
g6
S'Gloria Astete'
p3063
sg8
S'400356125'
p3064
sg10
(lp3065
Vsmileclicklove
p3066
aVgoldenglobes
p3067
aVgameofthrones
p3068
asg14
S'RT @nikolajcw: Sweetest photographer on the red carpet. https://t.co/q5jj5cHu8B #smileclicklove #goldenglobes, #gameofthrones https://t.co/'
p3069
sg16
g17
(S'\x07\xe1\x01\t\x1777\x00\x00\x00'
p3070
tp3071
Rp3072
sg21
(lp3073
Vnikolajcw
p3074
asba(iTweetDB
Tweet
p3075
(dp3076
g6
S'Ari'
p3077
sg8
S'3279213469'
p3078
sg10
(lp3079
VGoldenGlobes
p3080
asg14
S'RT @bestofeddie: Eddie Redmayne being the most handsome man in the world at the #GoldenGlobes red carpet! https://t.co/PvsU7MOqGO'
p3081
sg16
g17
(S'\x07\xe1\x01\t\x1776\x00\x00\x00'
p3082
tp3083
Rp3084
sg21
(lp3085
Vbestofeddie
p3086
asba(iTweetDB
Tweet
p3087
(dp3088
g6
S'#Trump4Brazil'
p3089
sg8
S'1137979866'
p3090
sg10
(lp3091
VGoldenGlobes
p3092
asg14
S'RT @goldenglobes: Casey Affleck presents a clip of @MBTSMovie, which is nominated for Best Motion Picture - Drama at the #GoldenGlobes. htt'
p3093
sg16
g17
(S'\x07\xe1\x01\t\x1775\x00\x00\x00'
p3094
tp3095
Rp3096
sg21
(lp3097
S'goldenglobes'
p3098
aS'MBTSMovie'
p3099
asba(iTweetDB
Tweet
p3100
(dp3101
g6
S"ALAN O' ROURKE"
p3102
sg8
S'81179858'
p3103
sg10
(lp3104
VGoldenGlobes
p3105
asg14
S'@SJP the most beautiful women at the #GoldenGlobes that white dress was everything'
p3106
sg16
g17
(S'\x07\xe1\x01\t\x1772\x00\x00\x00'
p3107
tp3108
Rp3109
sg21
(lp3110
S'SJP'
p3111
asba(iTweetDB
Tweet
p3112
(dp3113
g6
S'April A.'
p3114
sg8
S'712379831124680704'
p3115
sg10
(lp3116
VGoldenGlobes
p3117
aVmygirl
p3118
aVBlackGirlMagic
p3119
aVInsecure
p3120
asg14
S"The stunning @IssaRae #GoldenGlobes nominee #mygirl #BlackGirlMagic  @insecurehbo #Insecure Can't wait for Season 2 https://t.co/3ficAdRcfp"
p3121
sg16
g17
(S'\x07\xe1\x01\t\x1771\x00\x00\x00'
p3122
tp3123
Rp3124
sg21
(lp3125
VIssaRae
p3126
aVinsecurehbo
p3127
asba(iTweetDB
Tweet
p3128
(dp3129
g6
S'Louvois'
p3130
sg8
S'2448000006'
p3131
sg10
(lp3132
VGoldenGlobes
p3133
asg14
S'RT @Fashionista_com: The #GoldenGlobes red carpet is a long way from Laguna, but @KristinCav is still the Queen Bee: https://t.co/iwrXTRIio'
p3134
sg16
g17
(S'\x07\xe1\x01\t\x1771\x00\x00\x00'
p3135
tp3136
Rp3137
sg21
(lp3138
VFashionista_com
p3139
aVKristinCav
p3140
asba(iTweetDB
Tweet
p3141
(dp3142
g6
S'Madyyy'
p3143
sg8
S'723268744802373633'
p3144
sg10
(lp3145
VGoldenGlobes
p3146
asg14
S'RT @GMA: WATCH: Meryl Streep lashes out at Donald Trump in #GoldenGlobes speech; President-elect Trump responds on @Twitter this morning...'
p3147
sg16
g17
(S'\x07\xe1\x01\t\x177/\x00\x00\x00'
p3148
tp3149
Rp3150
sg21
(lp3151
S'GMA'
p3152
aS'Twitter'
p3153
asba(iTweetDB
Tweet
p3154
(dp3155
g6
S'Luca Milanese'
p3156
sg8
S'2386163494'
p3157
sg10
(lp3158
VGoldenGlobes
p3159
asg14
S'RT @goldenglobes: The amazing @kerrywashington steps out on the #GoldenGlobes Red Carpet. https://t.co/5PB67NtGpy'
p3160
sg16
g17
(S'\x07\xe1\x01\t\x177/\x00\x00\x00'
p3161
tp3162
Rp3163
sg21
(lp3164
Vgoldenglobes
p3165
aVkerrywashington
p3166
asba(iTweetDB
Tweet
p3167
(dp3168
g6
S'Marion Barry'
p3169
sg8
S'73150846'
p3170
sg10
(lp3171
S'Trump'
p3172
aS'GoldenGlobes'
p3173
asg14
S'Meryl said everything but #Trump pull up #GoldenGlobes'
p3174
sg16
g17
(S'\x07\xe1\x01\t\x177-\x00\x00\x00'
p3175
tp3176
Rp3177
sg21
(lp3178
sba(iTweetDB
Tweet
p3179
(dp3180
g6
S'Meems'
p3181
sg8
S'4190966068'
p3182
sg10
(lp3183
VMerylStreep
p3184
aVGoldenGlobes
p3185
aVTrump
p3186
asg14
S"RT @footballwizkid: #MerylStreep #GoldenGlobes speech was perfect example of why #Trump won. These clueless hacks don't realize what REAL p"
p3187
sg16
g17
(S'\x07\xe1\x01\t\x177*\x00\x00\x00'
p3188
tp3189
Rp3190
sg21
(lp3191
S'footballwizkid'
p3192
asba(iTweetDB
Tweet
p3193
(dp3194
g6
S'kingcakestopher'
p3195
sg8
S'500510338'
p3196
sg10
(lp3197
VGoldenGlobes
p3198
aVBlackish
p3199
asg14
S'RT @mrbabyboogaloo: Congratulations to the best TV mom who deserves this! @TraceeEllisRoss #GoldenGlobes #Blackish @goldenglobes https://t.'
p3200
sg16
g17
(S'\x07\xe1\x01\t\x177*\x00\x00\x00'
p3201
tp3202
Rp3203
sg21
(lp3204
S'mrbabyboogaloo'
p3205
aS'TraceeEllisRoss'
p3206
aS'goldenglobes'
p3207
asbasg21
(dp3208
g1089
(lp3209
g1076
asg2189
(lp3210
g2176
asg1692
(lp3211
g1680
asg289
(lp3212
g278
asg2442
(lp3213
g2432
asg2918
(lp3214
g2907
asg1829
(lp3215
g1818
asg2632
(lp3216
g2619
asg2305
(lp3217
g2294
asg800
(lp3218
g787
asg865
(lp3219
g853
asg1988
(lp3220
g1978
asg223
(lp3221
g212
asg1477
(lp3222
g1465
ag1517
asg305
(lp3223
g292
asg2856
(lp3224
g2845
asg2466
(lp3225
g2456
asg2187
(lp3226
g2176
asg264
(lp3227
g249
asg303
(lp3228
g292
asg174
(lp3229
g163
asg2138
(lp3230
g2121
asg1591
(lp3231
g1580
asg971
(lp3232
g960
ag3154
asg508
(lp3233
g496
ag947
ag1090
ag1752
ag2082
asg1999
(lp3234
g1989
asg1877
(lp3235
g1867
asg2958
(lp3236
g2946
asg2580
(lp3237
g2568
asg1188
(lp3238
g1177
asg3140
(lp3239
g3128
asg2868
(lp3240
g2857
asg1529
(lp3241
g1517
asg392
(lp3242
g381
ag560
ag2191
ag2756
asg1275
(lp3243
g1265
asg2519
(lp3244
g2508
asg3060
(lp3245
g3049
asg2567
(lp3246
g2556
asg2972
(lp3247
g2960
asg2494
(lp3248
g2483
asg917
(lp3249
g905
asg533
(lp3250
g521
asg1579
(lp3251
g1568
asg380
(lp3252
g369
asg2026
(lp3253
g2015
ag2345
asg3009
(lp3254
g2998
asg3036
(lp3255
g3025
asg162
(lp3256
g150
asg2630
(lp3257
g2619
asg1047
(lp3258
g1036
asg2343
(lp3259
g2332
asg661
(lp3260
g649
asg1842
(lp3261
g1830
asg1679
(lp3262
g1667
asg2645
(lp3263
g2633
asg48
(lp3264
g37
asg1778
(lp3265
g1765
asg2013
(lp3266
g2001
asg344
(lp3267
g332
ag1240
asg248
(lp3268
g237
ag2254
ag2781
asg1034
(lp3269
g1022
asg786
(lp3270
g774
asg687
(lp3271
g675
asg495
(lp3272
g483
asg440
(lp3273
g429
asg973
(lp3274
g960
asg773
(lp3275
g762
asg1927
(lp3276
g1916
asg1201
(lp3277
g1189
asg35
(lp3278
g24
ag175
ag1452
ag1478
ag1493
ag2495
ag2633
ag2684
ag2907
asg2406
(lp3279
g2395
asg1804
(lp3280
g1794
asg1153
(lp3281
g1142
asg946
(lp3282
g935
asg2068
(lp3283
g2055
asg2382
(lp3284
g2370
asg2671
(lp3285
g2660
ag3128
asg1792
(lp3286
g1779
asg1048
(lp3287
g1036
ag2444
ag3112
asg2644
(lp3288
g2633
asg469
(lp3289
g456
asg674
(lp3290
g662
ag840
asg96
(lp3291
g85
ag224
ag237
ag306
ag442
ag521
ag596
ag662
ag675
ag802
ag840
ag853
ag879
ag892
ag986
ag998
ag1022
ag1050
ag1076
ag1252
ag1265
ag1277
ag1328
ag1340
ag1364
ag1412
ag1465
ag1493
ag1505
ag1517
ag1843
ag1867
ag1952
ag2055
ag2095
ag2121
ag2176
ag2254
ag2419
ag2432
ag2444
ag2456
ag2508
ag2520
ag2633
ag2684
ag2881
ag2973
ag3012
ag3087
ag3154
ag3193
asg1629
(lp3292
g1617
asg2190
(lp3293
g2176
asg84
(lp3294
g72
asg2162
(lp3295
g2150
asg1075
(lp3296
g1063
asg2081
(lp3297
g2069
asg2107
(lp3298
g2095
asg1450
(lp3299
g1439
asg2779
(lp3300
g2768
asg2697
(lp3301
g2684
asg799
(lp3302
g787
asg2418
(lp3303
g2407
asg1543
(lp3304
g1531
asg1215
(lp3305
g1203
asg199
(lp3306
g188
asg2468
(lp3307
g2456
ag2619
ag2893
ag2998
asg1438
(lp3308
g1426
asg3086
(lp3309
g3075
asg135
(lp3310
g123
asg3127
(lp3311
g3112
asg750
(lp3312
g739
asg2807
(lp3313
g2794
asg3024
(lp3314
g3012
asg1866
(lp3315
g1856
asg1411
(lp3316
g1399
asg290
(lp3317
g278
ag1009
asg891
(lp3318
g879
ag1076
ag1989
asg108
(lp3319
g97
asg1129
(lp3320
g1116
asg801
(lp3321
g787
asg700
(lp3322
g688
asg2906
(lp3323
g2893
ag2998
asg234
(lp3324
g224
asg1751
(lp3325
g1741
asg1666
(lp3326
g1654
asg761
(lp3327
g751
ag974
asg852
(lp3328
g840
asg2959
(lp3329
g2946
asg1264
(lp3330
g1252
ag1340
ag1843
asg455
(lp3331
g442
asg2041
(lp3332
g2027
asg109
(lp3333
g97
ag713
ag1916
ag2282
asg1289
(lp3334
g1277
asg2543
(lp3335
g2532
ag2581
asg2186
(lp3336
g2176
asg1567
(lp3337
g1556
asg1641
(lp3338
g1630
asg1062
(lp3339
g1050
asg2716
(lp3340
g2700
asg149
(lp3341
g137
asg1338
(lp3342
g1328
ag1952
asg648
(lp3343
g637
asg636
(lp3344
g625
asg1890
(lp3345
g1879
asg368
(lp3346
g357
asg2618
(lp3347
g2606
ag2820
asg737
(lp3348
g725
asg23
(lp3349
g4
ag596
ag892
ag1227
ag1891
asg2482
(lp3350
g2469
asg2369
(lp3351
g2357
asg1202
(lp3352
g1189
asg95
(lp3353
g85
asg482
(lp3354
g470
asg583
(lp3355
g572
asg2120
(lp3356
g2108
asg3205
(lp3357
g3193
asg1555
(lp3358
g1544
asg1301
(lp3359
g1290
asg304
(lp3360
g292
ag2055
asg2997
(lp3361
g2986
asg2844
(lp3362
g2833
asg1327
(lp3363
g1315
asg1603
(lp3364
g1592
asg2932
(lp3365
g2921
asg3111
(lp3366
g3100
asg2729
(lp3367
g2717
asg1691
(lp3368
g1680
asg1425
(lp3369
g1412
asg2555
(lp3370
g2544
asg122
(lp3371
g110
asg136
(lp3372
g123
ag429
ag1412
ag2419
ag3193
asg1705
(lp3373
g1693
asg736
(lp3374
g725
asg1653
(lp3375
g1642
asg1740
(lp3376
g1729
asg1363
(lp3377
g1353
asg1463
(lp3378
g1452
asg3048
(lp3379
g3037
asg2014
(lp3380
g2001
asg2780
(lp3381
g2768
asg2683
(lp3382
g2672
asg3153
(lp3383
g3141
asg1791
(lp3384
g1779
asg2227
(lp3385
g2215
asg2054
(lp3386
g2042
asg1398
(lp3387
g1387
asg404
(lp3388
g393
asg1141
(lp3389
g1130
asg1817
(lp3390
g1805
asg660
(lp3391
g649
asg934
(lp3392
g918
ag2266
asg2579
(lp3393
g2568
asg520
(lp3394
g509
asg161
(lp3395
g150
ag547
ag2744
ag2781
asg2344
(lp3396
g2332
asg356
(lp3397
g345
ag405
asg2605
(lp3398
g2593
asg2163
(lp3399
g2150
asg3074
(lp3400
g3061
asg1516
(lp3401
g1505
asg2919
(lp3402
g2907
asg34
(lp3403
g24
ag1478
asg2904
(lp3404
g2893
asg36
(lp3405
g24
asg1049
(lp3406
g1036
asg453
(lp3407
g442
asg1616
(lp3408
g1604
asg277
(lp3409
g265
asg814
(lp3410
g802
ag1103
asg738
(lp3411
g725
asg785
(lp3412
g774
asg1115
(lp3413
g1103
asg1728
(lp3414
g1718
asg3192
(lp3415
g3179
asg235
(lp3416
g224
ag1116
asg2617
(lp3417
g2606
ag2820
asg318
(lp3418
g306
ag2228
asg839
(lp3419
g828
asg60
(lp3420
g49
ag2383
asg494
(lp3421
g483
ag1116
ag1189
asg3099
(lp3422
g3087
asg291
(lp3423
g278
ag1009
asg2743
(lp3424
g2730
asg1717
(lp3425
g1706
asg2643
(lp3426
g2633
asg2945
(lp3427
g2933
asg1915
(lp3428
g1904
asg331
(lp3429
g319
asg624
(lp3430
g609
ag2317
ag2700
asg2983
(lp3431
g2973
asg186
(lp3432
g175
asg2984
(lp3433
g2973
asg211
(lp3434
g200
asg546
(lp3435
g534
asg1793
(lp3436
g1779
asg827
(lp3437
g815
asg3152
(lp3438
g3141
asg1951
(lp3439
g1940
asg2481
(lp3440
g2469
asg1451
(lp3441
g1439
asg972
(lp3442
g960
asg2659
(lp3443
g2648
asg1977
(lp3444
g1964
asg1939
(lp3445
g1929
assS'parser'
p3446
(iTweetDB
TweetParser
p3447
(dp3448
g3446
ccopy_reg
_reconstructor
p3449
(cttp.ttp
Parser
p3450
c__builtin__
object
p3451
Ntp3452
Rp3453
(dp3454
S'_urls'
p3455
(lp3456
sS'_tags'
p3457
g3197
sS'_include_spans'
p3458
I00
sS'_users'
p3459
g3204
sS'_max_url_length'
p3460
I30
sS'_lists'
p3461
(lp3462
sbsbsg10
(dp3463
g270
(lp3464
g265
asg1417
(lp3465
g1412
ag2015
ag2469
ag2845
asg1772
(lp3466
g1765
asg2323
(lp3467
g2317
asg1404
(lp3468
g1399
ag2121
ag2203
asg2113
(lp3469
g2108
ag2150
asg2801
(lp3470
g2794
asg694
(lp3471
g688
asg924
(lp3472
g918
asg952
(lp3473
g947
asg615
(lp3474
g609
asg42
(lp3475
g37
asg256
(lp3476
g249
ag456
ag918
ag2266
asg1609
(lp3477
g1604
asg1537
(lp3478
g1531
ag1805
asg928
(lp3479
g918
asg792
(lp3480
g787
asg2375
(lp3481
g2370
asg590
(lp3482
g584
asg614
(lp3483
g609
ag866
ag918
ag1779
ag2027
ag2266
ag2317
ag2684
ag3167
ag3179
asg2170
(lp3484
g2164
asg2412
(lp3485
g2407
asg2248
(lp3486
g2240
asg2048
(lp3487
g2042
asg3199
(lp3488
g3193
asg1307
(lp3489
g1302
asg3068
(lp3490
g3061
asg2814
(lp3491
g2808
asg707
(lp3492
g701
asg283
(lp3493
g278
ag1009
asg617
(lp3494
g609
ag1556
ag2240
ag2317
ag2619
ag2700
ag2833
ag3061
asg807
(lp3495
g802
asg2075
(lp3496
g2069
asg255
(lp3497
g249
asg1432
(lp3498
g1426
asg552
(lp3499
g547
asg1823
(lp3500
g1818
asg386
(lp3501
g381
ag1387
asg2245
(lp3502
g2240
asg2737
(lp3503
g2730
asg463
(lp3504
g456
asg2800
(lp3505
g2794
asg2722
(lp3506
g2717
asg2128
(lp3507
g2121
asg1208
(lp3508
g1203
asg258
(lp3509
g249
asg618
(lp3510
g609
asg2362
(lp3511
g2357
asg77
(lp3512
g72
ag110
ag200
ag332
ag369
ag417
ag496
ag815
ag866
ag905
ag918
ag1063
ag1090
ag1154
ag1315
ag1426
ag1478
ag1544
ag1654
ag1667
ag1693
ag1752
ag1830
ag2027
ag2082
ag2121
ag2203
ag2215
ag2266
ag2383
ag2495
ag2593
ag2648
ag2684
ag2730
ag2808
ag2869
ag2960
ag3179
asg2127
(lp3513
g2121
asg3119
(lp3514
g3112
asg2247
(lp3515
g2240
asg142
(lp3516
g137
asg3120
(lp3517
g3112
asg475
(lp3518
g470
asg2705
(lp3519
g2700
asg12
(lp3520
g4
asg1245
(lp3521
g1240
ag1843
asg3066
(lp3522
g3061
asg2488
(lp3523
g2483
ag2946
asg2007
(lp3524
g2001
asg1081
(lp3525
g1076
asg2799
(lp3526
g2794
asg1623
(lp3527
g1617
asg2035
(lp3528
g2027
asg1108
(lp3529
g1103
asg447
(lp3530
g442
ag2946
asg1771
(lp3531
g1765
asg2129
(lp3532
g2121
asg13
(lp3533
g4
ag49
ag61
ag72
ag97
ag110
ag123
ag137
ag150
ag163
ag175
ag188
ag212
ag249
ag265
ag292
ag306
ag319
ag332
ag345
ag357
ag393
ag405
ag417
ag429
ag456
ag470
ag483
ag496
ag509
ag521
ag534
ag547
ag560
ag572
ag584
ag596
ag625
ag637
ag649
ag662
ag675
ag688
ag701
ag713
ag725
ag739
ag762
ag774
ag787
ag815
ag828
ag853
ag866
ag879
ag892
ag905
ag918
ag935
ag947
ag960
ag974
ag986
ag1022
ag1036
ag1050
ag1063
ag1090
ag1116
ag1130
ag1142
ag1154
ag1166
ag1177
ag1189
ag1203
ag1216
ag1227
ag1252
ag1277
ag1290
ag1302
ag1315
ag1340
ag1364
ag1376
ag1399
ag1439
ag1452
ag1478
ag1517
ag1531
ag1568
ag1580
ag1592
ag1604
ag1617
ag1642
ag1667
ag1680
ag1693
ag1706
ag1718
ag1729
ag1752
ag1765
ag1779
ag1794
ag1805
ag1830
ag1879
ag1891
ag1904
ag1916
ag1929
ag1940
ag1964
ag2001
ag2027
ag2042
ag2055
ag2069
ag2082
ag2095
ag2108
ag2121
ag2139
ag2150
ag2164
ag2191
ag2203
ag2215
ag2228
ag2266
ag2282
ag2294
ag2306
ag2332
ag2345
ag2357
ag2370
ag2395
ag2419
ag2495
ag2520
ag2544
ag2556
ag2568
ag2593
ag2606
ag2660
ag2672
ag2684
ag2717
ag2744
ag2756
ag2768
ag2781
ag2820
ag2857
ag2869
ag2881
ag2893
ag2907
ag2921
ag2933
ag2960
ag2986
ag2998
ag3012
ag3025
ag3037
ag3049
ag3075
ag3087
ag3100
ag3112
ag3128
ag3141
ag3154
ag3167
ag3179
ag3193
asg1635
(lp3534
g1630
asg1470
(lp3535
g1465
asg128
(lp3536
g123
asg2706
(lp3537
g2700
asg1660
(lp3538
g1654
asg2735
(lp3539
g2730
asg1232
(lp3540
g1227
ag1891
asg540
(lp3541
g534
asg325
(lp3542
g319
asg1969
(lp3543
g1964
ag1964
ag2933
asg2474
(lp3544
g2469
asg1309
(lp3545
g1302
asg2708
(lp3546
g2700
asg1028
(lp3547
g1022
asg2274
(lp3548
g2266
asg2537
(lp3549
g2532
ag2581
asg3118
(lp3550
g3112
asg616
(lp3551
g609
ag2317
ag2700
asg254
(lp3552
g249
ag1478
assb.